(dp0
(I16
I6
I01
I00
tp1
(dp2
S'double'
p3
F0.07199082922046895
sS'hit'
p4
F4.951264230428464
sS'stand'
p5
F0.17500000000000004
sS'split'
p6
I0
ss(I6
I8
I00
I00
tp7
(dp8
g3
I0
sg4
F2.828548963173154
sg5
I0
sg6
I0
ss(I17
I10
I01
I00
tp9
(dp10
g3
I0
sg4
F0.6026984311062525
sg5
F0.16793672088705885
sg6
I0
ss(I16
I8
I01
I00
tp11
(dp12
g3
F-0.6005152065207942
sg4
F1.1389547159545055
sg5
F-0.5
sg6
I0
ss(I14
I6
I00
I00
tp13
(dp14
g3
F-0.7993093058883425
sg4
F-0.6959666301430175
sg5
F-0.3689875288681912
sg6
I0
ss(I7
I10
I00
I00
tp15
(dp16
g3
F-0.12747595166372183
sg4
F1.3658304163202304
sg5
F0.5120081616994433
sg6
I0
ss(I14
I9
I01
I00
tp17
(dp18
g3
F-1.0809375
sg4
F1.5188140417671714
sg5
F-0.5
sg6
I0
ss(I6
I1
I00
I01
tp19
(dp20
g3
F-1.0
sg4
F0.25
sg5
I0
sg6
F0.6949357097574783
ss(I15
I7
I01
I00
tp21
(dp22
g3
F-1.0
sg4
F1.4021376562499999
sg5
F-0.28283326562499994
sg6
I0
ss(I14
I6
I01
I00
tp23
(dp24
g3
F-0.9404601562499999
sg4
F1.360635149175856
sg5
I0
sg6
I0
ss(I10
I3
I00
I01
tp25
(dp26
g3
I0
sg4
I0
sg5
I0
sg6
F0.478515625
ss(I17
I7
I00
I00
tp27
(dp28
g3
F-2.0585474150732024
sg4
F-0.5702955916471077
sg5
F1.392542901600837
sg6
I0
ss(I8
I7
I00
I01
tp29
(dp30
g3
F-1.0
sg4
I0
sg5
I0
sg6
F1.6624609807318191
ss(I18
I4
I01
I00
tp31
(dp32
g3
I0
sg4
F2.6114387949198083
sg5
I0
sg6
I0
ss(I16
I9
I00
I01
tp33
(dp34
g3
F-1.0
sg4
F-0.5
sg5
F-0.5
sg6
F1.0508149625049603
ss(I16
I10
I00
I01
tp35
(dp36
g3
I0
sg4
F-0.06433680189632929
sg5
I0
sg6
F1.5114528742191307
ss(I18
I8
I00
I01
tp37
(dp38
g3
F-0.29159375
sg4
I0
sg5
I0
sg6
F1.8790720909918182
ss(I8
I8
I00
I01
tp39
(dp40
g3
I0
sg4
I0
sg5
F-0.25796162841796877
sg6
F0.7492742321777344
ss(I4
I10
I00
I01
tp41
(dp42
g3
I0
sg4
I0
sg5
F-0.39559030132151785
sg6
F0.6384176008352589
ss(I19
I7
I00
I00
tp43
(dp44
g3
F-0.875
sg4
F1.8890116202576197
sg5
F6.1915997630343345
sg6
I0
ss(I12
I5
I00
I00
tp45
(dp46
g3
F2.635063858927915
sg4
F-0.5762525230306033
sg5
F-0.662070303106311
sg6
I0
ss(I7
I3
I00
I00
tp47
(dp48
g3
F0.4484979393592723
sg4
F1.8086960393133489
sg5
I0
sg6
I0
ss(I6
I5
I00
I00
tp49
(dp50
g3
I0
sg4
F2.326058624616886
sg5
F-0.5
sg6
I0
ss(I8
I2
I00
I00
tp51
(dp52
g3
F-0.3547273269115915
sg4
F1.4770399117880322
sg5
F0.2472445964241481
sg6
I0
ss(I4
I4
I00
I01
tp53
(dp54
g3
F-0.14952861438823062
sg4
F0.8045108018788986
sg5
I0
sg6
I0
ss(I21
I6
I01
I00
tp55
(dp56
g3
I0
sg4
I0
sg5
F13.461350144950838
sg6
I0
ss(I14
I8
I01
I00
tp57
(dp58
g3
I0
sg4
F0.8405280426593456
sg5
F-0.5
sg6
I0
ss(I13
I1
I00
I00
tp59
(dp60
g3
F-2.464036163737853
sg4
F0.36189861754344
sg5
F-1.4921134672079446
sg6
I0
ss(I18
I2
I00
I01
tp61
(dp62
g3
F-1.5
sg4
I0
sg5
F0.5
sg6
I0
ss(I9
I4
I00
I00
tp63
(dp64
g3
F-1.0
sg4
F4.7184884595373955
sg5
I0
sg6
I0
ss(I20
I1
I01
I00
tp65
(dp66
g3
F-1.0
sg4
F-0.045692002461829695
sg5
F-0.42221875
sg6
I0
ss(I14
I1
I00
I00
tp67
(dp68
g3
F-0.9327201033442264
sg4
F-0.09757093719614435
sg5
F-1.0000300407409668
sg6
I0
ss(I13
I8
I01
I00
tp69
(dp70
g3
I0
sg4
F2.367262601694479
sg5
I0
sg6
I0
ss(I12
I8
I00
I01
tp71
(dp72
g3
I0
sg4
I0
sg5
I0
sg6
F3.0037038502075757
ss(I10
I10
I00
I00
tp73
(dp74
g3
F-2.3139182518712635
sg4
F0.816125786669302
sg5
F0.09966695282106966
sg6
I0
ss(I18
I9
I00
I01
tp75
(dp76
g3
F-1.0
sg4
F-0.16249999999999998
sg5
F-0.025000000000000022
sg6
F0.4369839671801095
ss(I12
I1
I00
I01
tp77
(dp78
g3
I0
sg4
I0
sg5
I0
sg6
F0.6611126240686523
ss(I20
I2
I00
I01
tp79
(dp80
g3
I0
sg4
F-0.5
sg5
F3.286645998373631
sg6
I0
ss(I15
I10
I01
I00
tp81
(dp82
g3
F-1.0469545187633211
sg4
F2.881407727792661
sg5
F-0.5
sg6
I0
ss(I20
I3
I01
I00
tp83
(dp84
g3
I0
sg4
I0
sg5
F4.502288299714428
sg6
I0
ss(I15
I4
I01
I00
tp85
(dp86
g3
F1.0796014947401273
sg4
F1.290397107439458
sg5
I0
sg6
I0
ss(I11
I10
I00
I00
tp87
(dp88
g3
F-1.9716640332841686
sg4
F1.3184416485881694
sg5
F-1.0104100340063664
sg6
I0
ss(I12
I5
I00
I01
tp89
(dp90
g3
F-0.459397618241729
sg4
F4.510907027932124
sg5
F-0.5
sg6
I0
ss(I20
I5
I00
I01
tp91
(dp92
g3
I0
sg4
F-0.5
sg5
I0
sg6
F3.6394334901791727
ss(I14
I5
I00
I01
tp93
(dp94
g3
F-1.0
sg4
I0
sg5
I0
sg6
F2.413411944210924
ss(I19
I4
I00
I00
tp95
(dp96
g3
F-1.0
sg4
F-0.9375
sg5
F5.155986790942057
sg6
I0
ss(I12
I4
I00
I00
tp97
(dp98
g3
F-0.3742973370968554
sg4
F0.7588405549531425
sg5
F-0.30852119140625
sg6
I0
ss(I15
I9
I00
I00
tp99
(dp100
g3
F-1.0890212521400338
sg4
F-0.112486982639667
sg5
F-0.7876305937238852
sg6
I0
ss(I6
I4
I00
I00
tp101
(dp102
g3
F-1.0
sg4
I0
sg5
F-0.09506250000000002
sg6
I0
ss(I8
I1
I00
I00
tp103
(dp104
g3
I0
sg4
F1.4815915815250145
sg5
F-0.875
sg6
I0
ss(I13
I9
I01
I00
tp105
(dp106
g3
F-1.0
sg4
F0.8231330587863145
sg5
F-0.5
sg6
I0
ss(I13
I2
I00
I00
tp107
(dp108
g3
F-1.761681836278218
sg4
F-0.25663145416355415
sg5
F0.6062000648784842
sg6
I0
ss(I6
I10
I00
I00
tp109
(dp110
g3
F0.7334891887300226
sg4
F0.9407289252417017
sg5
F0.5979958206258649
sg6
I0
ss(I9
I5
I00
I00
tp111
(dp112
g3
F-0.06874999999999998
sg4
F2.2266252845946712
sg5
F0.6008938408588866
sg6
I0
ss(I8
I10
I00
I01
tp113
(dp114
g3
F-0.9466777146427378
sg4
F0.7050130012983418
sg5
I0
sg6
F1.5496005406736213
ss(I14
I4
I01
I00
tp115
(dp116
g3
F-0.6796454431213711
sg4
F0.25
sg5
F-0.5
sg6
I0
ss(I7
I8
I00
I00
tp117
(dp118
g3
F0.0
sg4
F1.3631687479566457
sg5
F-0.5
sg6
I0
ss(I15
I5
I01
I00
tp119
(dp120
g3
F-0.18359851704584518
sg4
F1.1346274087180963
sg5
F-0.5
sg6
I0
ss(I13
I5
I00
I00
tp121
(dp122
g3
F3.9469186089034314
sg4
F-0.8579274884729997
sg5
F-0.28247892051455364
sg6
I0
ss(I15
I2
I00
I00
tp123
(dp124
g3
F-1.4886191802908595
sg4
F-0.8571775444923316
sg5
F-0.010196071216253377
sg6
I0
ss(I17
I1
I00
I00
tp125
(dp126
g3
F-2.1975688505995756
sg4
F0.07305562298436863
sg5
F-0.7071556733972262
sg6
I0
ss(I8
I5
I00
I01
tp127
(dp128
g3
F-0.5
sg4
I0
sg5
I0
sg6
F1.3994367377612473
ss(I16
I6
I00
I01
tp129
(dp130
g3
I0
sg4
F-0.5
sg5
F-0.025000000000000022
sg6
I0
ss(I18
I6
I01
I00
tp131
(dp132
g3
F1.6047759103888188
sg4
F2.4496483219336254
sg5
F1.3582714838460515
sg6
I0
ss(I18
I1
I01
I00
tp133
(dp134
g3
I0
sg4
F0.779394901851708
sg5
I0
sg6
I0
ss(I18
I1
I00
I00
tp135
(dp136
g3
F-1.9104619868565444
sg4
F-0.4591411510416222
sg5
F-0.5988773345708847
sg6
I0
ss(I17
I8
I01
I00
tp137
(dp138
g3
F9.250089984407197
sg4
I0
sg5
F-0.4139589857431641
sg6
I0
ss(I16
I8
I00
I01
tp139
(dp140
g3
I0
sg4
I0
sg5
I0
sg6
F2.473112201811885
ss(I4
I8
I00
I01
tp141
(dp142
g3
F-0.19801465941325547
sg4
F1.9123542517466954
sg5
I0
sg6
F0.46079993645877976
ss(I19
I5
I00
I00
tp143
(dp144
g3
F-1.5
sg4
F-0.875
sg5
F5.281914565001095
sg6
I0
ss(I19
I10
I01
I00
tp145
(dp146
g3
F-0.5053586663930079
sg4
F2.4598376303385336
sg5
F-0.3722880678169262
sg6
I0
ss(I6
I7
I00
I00
tp147
(dp148
g3
I0
sg4
F1.0105731764592603
sg5
I0
sg6
I0
ss(I16
I1
I00
I01
tp149
(dp150
g3
F-0.775
sg4
F0.25
sg5
I0
sg6
F0.738784942626953
ss(I20
I6
I01
I00
tp151
(dp152
g3
I0
sg4
F0.7729546875
sg5
F3.661744452495726
sg6
I0
ss(I14
I10
I01
I00
tp153
(dp154
g3
F0.26892150444130336
sg4
F1.1682745944397879
sg5
F-0.20200848787667047
sg6
I0
ss(I13
I3
I00
I00
tp155
(dp156
g3
F-1.5260747520029125
sg4
F-0.577313046924871
sg5
F0.13383623836143732
sg6
I0
ss(I18
I4
I00
I01
tp157
(dp158
g3
F-0.5
sg4
F-0.63125
sg5
F-0.5
sg6
F0.562041557857035
ss(I4
I3
I00
I01
tp159
(dp160
g3
F-0.9867305236373901
sg4
F1.3760852121036615
sg5
I0
sg6
I0
ss(I9
I6
I00
I00
tp161
(dp162
g3
I0
sg4
F1.1523484268431474
sg5
F1.7535810605354527
sg6
I0
ss(I6
I7
I00
I01
tp163
(dp164
g3
I0
sg4
I0
sg5
I0
sg6
F4.975810440425307
ss(I7
I4
I00
I00
tp165
(dp166
g3
F-0.363140625
sg4
F1.7291350698736583
sg5
F0.10976015625000007
sg6
I0
ss(I14
I3
I00
I00
tp167
(dp168
g3
F1.2385557855879905
sg4
F-0.5536326264289175
sg5
F-0.9312282540899107
sg6
I0
ss(I13
I10
I01
I00
tp169
(dp170
g3
F-1.2428082563964844
sg4
F11.706149312253299
sg5
F0.030609315759652977
sg6
I0
ss(I14
I4
I00
I01
tp171
(dp172
g3
I0
sg4
F1.326871618469113
sg5
F-0.275
sg6
I0
ss(I6
I2
I00
I01
tp173
(dp174
g3
F-1.0
sg4
I0
sg5
I0
sg6
F2.6967409722137363
ss(I17
I9
I01
I00
tp175
(dp176
g3
I0
sg4
F1.68077569977859
sg5
F-0.3621875
sg6
I0
ss(I15
I3
I00
I00
tp177
(dp178
g3
F-0.2607813523028111
sg4
F-0.3693921895226612
sg5
F-0.04054846610417584
sg6
I0
ss(I17
I2
I00
I00
tp179
(dp180
g3
F0.580589933834829
sg4
F0.6407622100696235
sg5
F2.32814713010677
sg6
I0
ss(I15
I8
I01
I00
tp181
(dp182
g3
F0.5803776847360755
sg4
F1.0729417405496424
sg5
F0.40249999999999997
sg6
I0
ss(I11
I6
I00
I00
tp183
(dp184
g3
F-1.1550237149877929
sg4
F0.8223992297052518
sg5
F0.3831597764161646
sg6
I0
ss(I20
I9
I00
I01
tp185
(dp186
g3
I0
sg4
F-0.5
sg5
F3.2225059027539067
sg6
I0
ss(I20
I2
I01
I00
tp187
(dp188
g3
I0
sg4
F1.1300878366484641
sg5
F0.8641807325989814
sg6
I0
ss(I6
I9
I00
I01
tp189
(dp190
g3
I0
sg4
I0
sg5
I0
sg6
F1.1193340363082567
ss(I11
I8
I00
I00
tp191
(dp192
g3
I0
sg4
F0.9457284914121613
sg5
F-0.275
sg6
I0
ss(I21
I4
I01
I00
tp193
(dp194
g3
I0
sg4
I0
sg5
F13.848914332372601
sg6
I0
ss(I14
I7
I00
I01
tp195
(dp196
g3
I0
sg4
F-0.5
sg5
I0
sg6
F2.432777287717731
ss(I19
I2
I00
I00
tp197
(dp198
g3
I0
sg4
F-0.7834284267578124
sg5
F3.029654688949106
sg6
I0
ss(I12
I10
I00
I00
tp199
(dp200
g3
F-1.2329258893024022
sg4
F0.3056235854107544
sg5
F-0.9621649147529896
sg6
I0
ss(I6
I6
I00
I00
tp201
(dp202
g3
I0
sg4
F2.560454340330665
sg5
I0
sg6
I0
ss(I13
I4
I00
I00
tp203
(dp204
g3
F-1.6980151244026906
sg4
F-0.41724876559706325
sg5
F-0.9913780598443386
sg6
I0
ss(I9
I7
I00
I00
tp205
(dp206
g3
I0
sg4
F4.731492270377096
sg5
F0.4837203125
sg6
I0
ss(I21
I1
I01
I00
tp207
(dp208
g3
I0
sg4
I0
sg5
F12.910438725371142
sg6
I0
ss(I15
I9
I01
I00
tp209
(dp210
g3
F-0.29328125000000005
sg4
F0.9095856294891577
sg5
F-0.2625
sg6
I0
ss(I14
I2
I00
I00
tp211
(dp212
g3
F-0.25377343750000003
sg4
F4.661897587871348
sg5
F-0.820642772349565
sg6
I0
ss(I14
I5
I01
I00
tp213
(dp214
g3
F-0.22570550533508127
sg4
I0
sg5
F1.5950371681270012
sg6
I0
ss(I7
I5
I00
I00
tp215
(dp216
g3
F0.08667952623159292
sg4
I0
sg5
I0
sg6
I0
ss(I5
I1
I00
I00
tp217
(dp218
g3
F-0.9112031053194634
sg4
F2.2377472868396193
sg5
F-0.75
sg6
I0
ss(I17
I3
I00
I00
tp219
(dp220
g3
F-0.942477778369522
sg4
F-0.9511298480529179
sg5
F-0.3564210628005462
sg6
I0
ss(I11
I7
I00
I00
tp221
(dp222
g3
F0.5
sg4
F2.6882295480500904
sg5
F-0.5
sg6
I0
ss(I16
I4
I00
I01
tp223
(dp224
g3
I0
sg4
F0.6875
sg5
F-0.75
sg6
I0
ss(I18
I8
I01
I00
tp225
(dp226
g3
F-0.8103808634744246
sg4
F1.2779931533083544
sg5
I0
sg6
I0
ss(I18
I3
I00
I00
tp227
(dp228
g3
F-2.125
sg4
F0.4286050606009275
sg5
F-0.8704013814035181
sg6
I0
ss(I11
I9
I00
I00
tp229
(dp230
g3
F-1.0
sg4
F1.3047378273000327
sg5
I0
sg6
I0
ss(I12
I9
I00
I01
tp231
(dp232
g3
I0
sg4
F0.35233808593749993
sg5
I0
sg6
F6.815978081184851
ss(I10
I2
I00
I01
tp233
(dp234
g3
I0
sg4
F0.25
sg5
I0
sg6
F1.5929353025260782
ss(I20
I10
I01
I00
tp235
(dp236
g3
F0.47320858384687137
sg4
F1.6240151309269866
sg5
F4.151616268878832
sg6
I0
ss(I19
I3
I00
I00
tp237
(dp238
g3
F-1.875
sg4
F0.3256686489700811
sg5
F0.9875670029439214
sg6
I0
ss(I12
I9
I00
I00
tp239
(dp240
g3
F-0.44060676139048205
sg4
F-0.5917689331639338
sg5
F-0.9670774631321932
sg6
I0
ss(I19
I8
I01
I00
tp241
(dp242
g3
I0
sg4
F2.940892636256123
sg5
F-0.5
sg6
I0
ss(I16
I4
I01
I00
tp243
(dp244
g3
F0.15083209932659858
sg4
F3.7432150776655937
sg5
F-0.5
sg6
I0
ss(I20
I4
I01
I00
tp245
(dp246
g3
F1.9899177610006584
sg4
F1.676006846226564
sg5
F5.125980774595014
sg6
I0
ss(I20
I3
I00
I00
tp247
(dp248
g3
F-2.0
sg4
F-0.734375
sg5
F7.139337698502802
sg6
I0
ss(I7
I6
I00
I00
tp249
(dp250
g3
F0.18940773437500003
sg4
F1.837661351672533
sg5
I0
sg6
I0
ss(I18
I6
I00
I01
tp251
(dp252
g3
I0
sg4
F-0.5
sg5
I0
sg6
F2.1583614784107614
ss(I4
I1
I00
I01
tp253
(dp254
g3
F-1.0
sg4
F0.55
sg5
F-0.5
sg6
I0
ss(I12
I2
I00
I01
tp255
(dp256
g3
I0
sg4
I0
sg5
I0
sg6
F1.8461224041319144
ss(I14
I10
I00
I01
tp257
(dp258
g3
F0.17098672212079963
sg4
F-0.5
sg5
F-0.025000000000000022
sg6
F0.6733974458211796
ss(I16
I5
I00
I01
tp259
(dp260
g3
I0
sg4
I0
sg5
I0
sg6
F1.5025439664133518
ss(I17
I5
I01
I00
tp261
(dp262
g3
F-0.94375
sg4
F2.4580277721080432
sg5
F-0.5
sg6
I0
ss(I16
I10
I00
I00
tp263
(dp264
g3
F-1.9222327119505063
sg4
F-0.017248528317720335
sg5
F-0.9324276490841308
sg6
I0
ss(I16
I1
I01
I00
tp265
(dp266
g3
F0.49140625000000004
sg4
F0.7979125741838479
sg5
I0
sg6
I0
ss(I21
I2
I01
I00
tp267
(dp268
g3
I0
sg4
I0
sg5
F11.698844047536877
sg6
I0
ss(I20
I6
I00
I01
tp269
(dp270
g3
F0.5
sg4
F-0.5
sg5
F0.95871875
sg6
F6.236473459101633
ss(I6
I5
I00
I01
tp271
(dp272
g3
F1.9081406458366024
sg4
I0
sg5
F-0.025000000000000022
sg6
I0
ss(I11
I4
I00
I00
tp273
(dp274
g3
F-0.12017228125000001
sg4
F1.9948149692539157
sg5
F0.8018941015625
sg6
I0
ss(I7
I9
I00
I00
tp275
(dp276
g3
I0
sg4
F0.7334976091801279
sg5
F-0.4445625
sg6
I0
ss(I13
I2
I01
I00
tp277
(dp278
g3
I0
sg4
F4.29537325741609
sg5
I0
sg6
I0
ss(I19
I9
I01
I00
tp279
(dp280
g3
F-1.0
sg4
F6.931390387833665
sg5
I0
sg6
I0
ss(I18
I2
I00
I00
tp281
(dp282
g3
F-1.875
sg4
F-0.052676355615693615
sg5
F0.9238914427625448
sg6
I0
ss(I15
I3
I01
I00
tp283
(dp284
g3
F3.1512456878757007
sg4
I0
sg5
F-0.34170499383387304
sg6
I0
ss(I5
I2
I00
I00
tp285
(dp286
g3
I0
sg4
F0.7933215031136057
sg5
F-0.1039528093622622
sg6
I0
ss(I14
I1
I00
I01
tp287
(dp288
g3
I0
sg4
I0
sg5
I0
sg6
F0.5265625
ss(I12
I8
I00
I00
tp289
(dp290
g3
F-0.5392039985004651
sg4
F-0.012837249368823966
sg5
F-0.658696572424484
sg6
I0
ss(I4
I5
I00
I01
tp291
(dp292
g3
I0
sg4
F1.728476820340862
sg5
I0
sg6
I0
ss(I20
I2
I00
I00
tp293
(dp294
g3
F-1.75
sg4
F-0.75
sg5
F6.2941126661746996
sg6
I0
ss(I13
I6
I00
I00
tp295
(dp296
g3
F-0.19466051007767016
sg4
F-0.4969069909033379
sg5
F1.4079436522423363
sg6
I0
ss(I10
I5
I00
I01
tp297
(dp298
g3
I0
sg4
F4.923923157166634
sg5
I0
sg6
I0
ss(I16
I7
I00
I00
tp299
(dp300
g3
F-1.772834423828125
sg4
F-0.8659026900735463
sg5
F0.0002586532212148773
sg6
I0
ss(I9
I1
I00
I00
tp301
(dp302
g3
F-1.093848544921875
sg4
F1.2505131801755973
sg5
F-0.6375
sg6
I0
ss(I21
I3
I01
I00
tp303
(dp304
g3
I0
sg4
I0
sg5
F12.770681999078228
sg6
I0
ss(I8
I6
I00
I01
tp305
(dp306
g3
I0
sg4
I0
sg5
I0
sg6
F1.5040231821411472
ss(I18
I5
I01
I00
tp307
(dp308
g3
F-0.80453125
sg4
F1.0362715875038777
sg5
F-0.5
sg6
I0
ss(I16
I9
I00
I00
tp309
(dp310
g3
F-2.516568059056598
sg4
F-0.7287428119123012
sg5
F-0.3573367215464032
sg6
I0
ss(I14
I7
I01
I00
tp311
(dp312
g3
F1.7750031858029751
sg4
I0
sg5
F-0.025000000000000022
sg6
I0
ss(I10
I1
I00
I00
tp313
(dp314
g3
F-0.6191247012101173
sg4
F2.5805570320306623
sg5
F-0.58125
sg6
I0
ss(I15
I6
I00
I00
tp315
(dp316
g3
F-0.4983375646379484
sg4
F4.276885148584345
sg5
F-0.47919221969595815
sg6
I0
ss(I8
I1
I00
I01
tp317
(dp318
g3
I0
sg4
F0.5755970866772432
sg5
I0
sg6
I0
ss(I16
I2
I00
I01
tp319
(dp320
g3
I0
sg4
F-0.375
sg5
F-0.5
sg6
I0
ss(I18
I10
I01
I00
tp321
(dp322
g3
F-0.9680921875
sg4
F7.84087636651588
sg5
F0.15969626245927182
sg6
I0
ss(I16
I9
I01
I00
tp323
(dp324
g3
F-1.0
sg4
F2.260589377045741
sg5
I0
sg6
I0
ss(I18
I5
I00
I00
tp325
(dp326
g3
F-1.68359375
sg4
F-0.3516862220350052
sg5
F-0.09013272699796632
sg6
I0
ss(I5
I3
I00
I00
tp327
(dp328
g3
F-1.0
sg4
F0.4375
sg5
I0
sg6
I0
ss(I10
I4
I00
I01
tp329
(dp330
g3
I0
sg4
I0
sg5
F-0.5
sg6
F0.98139636050197
ss(I8
I10
I00
I00
tp331
(dp332
g3
F0.12933285171885056
sg4
F1.0324110959817414
sg5
F0.30980506489174375
sg6
I0
ss(I20
I8
I01
I00
tp333
(dp334
g3
I0
sg4
F5.603680142927888
sg5
F0.0
sg6
I0
ss(I19
I1
I00
I00
tp335
(dp336
g3
F-0.4296875
sg4
F-0.9999923706054688
sg5
F1.0069737159503596
sg6
I0
ss(I19
I6
I01
I00
tp337
(dp338
g3
I0
sg4
F4.756740348971124
sg5
F0.9841771439550782
sg6
I0
ss(I6
I3
I00
I00
tp339
(dp340
g3
I0
sg4
F1.0793627982351495
sg5
F0.08187500000000003
sg6
I0
ss(I18
I7
I01
I00
tp341
(dp342
g3
I0
sg4
F2.7546831106064937
sg5
F1.5698636019412942
sg6
I0
ss(I20
I1
I00
I00
tp343
(dp344
g3
F-1.4375
sg4
F-2.714599609375
sg5
F3.3146271544906023
sg6
I0
ss(I13
I7
I00
I00
tp345
(dp346
g3
F-1.1451165831304424
sg4
F2.842544272197388
sg5
F-0.008592044780637242
sg6
I0
ss(I14
I9
I00
I00
tp347
(dp348
g3
F-0.5663320573937625
sg4
F-0.5164746962342164
sg5
F-0.6762989115822383
sg6
I0
ss(I16
I6
I00
I00
tp349
(dp350
g3
F-0.9357708444581312
sg4
F1.371471862123919
sg5
F-0.8172833242219422
sg6
I0
ss(I9
I2
I00
I00
tp351
(dp352
g3
F-3.067383528734692
sg4
F2.9022570193960853
sg5
F0.23047207031249994
sg6
I0
ss(I10
I9
I00
I01
tp353
(dp354
g3
F-0.161540196054491
sg4
I0
sg5
F-0.20341890625
sg6
I0
ss(I18
I1
I00
I01
tp355
(dp356
g3
I0
sg4
I0
sg5
I0
sg6
F1.2769225719144657
ss(I17
I7
I01
I00
tp357
(dp358
g3
I0
sg4
I0
sg5
F0.5712249652539061
sg6
I0
ss(I16
I8
I00
I00
tp359
(dp360
g3
F2.448698902359877
sg4
F-0.9733086166064996
sg5
F2.3300723529223237
sg6
I0
ss(I20
I10
I00
I01
tp361
(dp362
g3
F-1.5
sg4
F-0.875
sg5
F1.468503704802493
sg6
I0
ss(I15
I7
I00
I00
tp363
(dp364
g3
F-1.2441915774283334
sg4
F0.2589012033130993
sg5
F-0.9814146431699735
sg6
I0
ss(I20
I4
I00
I01
tp365
(dp366
g3
I0
sg4
F-0.5
sg5
I0
sg6
F3.455469200991088
ss(I17
I2
I01
I00
tp367
(dp368
g3
F-0.6442108822041174
sg4
F5.502454099683465
sg5
I0
sg6
I0
ss(I11
I2
I00
I00
tp369
(dp370
g3
F0.08437500000000009
sg4
F1.6728902820606009
sg5
F-0.08446857202893071
sg6
I0
ss(I19
I7
I01
I00
tp371
(dp372
g3
I0
sg4
F0.25
sg5
F2.140136228125
sg6
I0
ss(I18
I4
I00
I00
tp373
(dp374
g3
I0
sg4
F-0.415666598982137
sg5
F3.1889725903042594
sg6
I0
ss(I16
I5
I01
I00
tp375
(dp376
g3
F-1.0
sg4
F5.129592123198269
sg5
F-0.5
sg6
I0
ss(I5
I4
I00
I00
tp377
(dp378
g3
F-1.0
sg4
I0
sg5
F-0.025000000000000022
sg6
I0
ss(I8
I9
I00
I00
tp379
(dp380
g3
F-1.06346875
sg4
F1.755049798203881
sg5
F-0.058557687104380696
sg6
I0
ss(I14
I3
I00
I01
tp381
(dp382
g3
I0
sg4
I0
sg5
I0
sg6
F1.0569107454644757
ss(I13
I1
I01
I00
tp383
(dp384
g3
I0
sg4
F1.1820439402898266
sg5
I0
sg6
I0
ss(I6
I2
I00
I00
tp385
(dp386
g3
F-1.82759375
sg4
F1.2909169074286615
sg5
F-0.5
sg6
I0
ss(I13
I8
I00
I00
tp387
(dp388
g3
F-0.5117941364869728
sg4
F-0.1458875146548147
sg5
F-0.8709174414229226
sg6
I0
ss(I14
I8
I00
I00
tp389
(dp390
g3
F-0.8847928031557095
sg4
F-0.596279958312785
sg5
F0.0869662234984594
sg6
I0
ss(I16
I5
I00
I00
tp391
(dp392
g3
F-0.20856310702661485
sg4
F-1.0157303997986271
sg5
F-0.12725840204294908
sg6
I0
ss(I9
I3
I00
I00
tp393
(dp394
g3
F-0.6859157223588037
sg4
F0.9530905242703407
sg5
F-0.3676886568286129
sg6
I0
ss(I21
I5
I01
I00
tp395
(dp396
g3
I0
sg4
I0
sg5
F13.476268106052338
sg6
I0
ss(I8
I4
I00
I01
tp397
(dp398
g3
I0
sg4
F2.295702711482516
sg5
I0
sg6
I0
ss(I15
I10
I00
I00
tp399
(dp400
g3
F-1.603553638332306
sg4
F-0.7148431016445603
sg5
F-1.734491253674127
sg6
I0
ss(I14
I1
I01
I00
tp401
(dp402
g3
I0
sg4
F0.8417712173171417
sg5
I0
sg6
I0
ss(I10
I3
I00
I00
tp403
(dp404
g3
I0
sg4
F2.8461719837515442
sg5
F-0.035951562500000034
sg6
I0
ss(I15
I4
I00
I00
tp405
(dp406
g3
F-0.5191336394505952
sg4
F-0.9978820974838484
sg5
F-0.24601837436064303
sg6
I0
ss(I11
I3
I00
I00
tp407
(dp408
g3
F-1.0
sg4
F0.9510657407667472
sg5
F0.1780625
sg6
I0
ss(I20
I9
I01
I00
tp409
(dp410
g3
I0
sg4
F4.2891460982813285
sg5
I0
sg6
I0
ss(I10
I8
I00
I01
tp411
(dp412
g3
F7.3525225640325775
sg4
I0
sg5
F-0.025000000000000022
sg6
I0
ss(I18
I7
I00
I00
tp413
(dp414
g3
F-1.5
sg4
F-1.0
sg5
F6.276916714821368
sg6
I0
ss(I6
I1
I00
I00
tp415
(dp416
g3
I0
sg4
F0.6528072750997616
sg5
I0
sg6
I0
ss(I12
I3
I00
I00
tp417
(dp418
g3
F-0.7171485733996247
sg4
F2.2762604446240937
sg5
F-0.8899120571970589
sg6
I0
ss(I7
I2
I00
I00
tp419
(dp420
g3
F-0.9226876171875
sg4
F2.4849669955775733
sg5
F-0.5
sg6
I0
ss(I10
I6
I00
I01
tp421
(dp422
g3
I0
sg4
F1.5094004792594322
sg5
I0
sg6
I0
ss(I8
I8
I00
I00
tp423
(dp424
g3
I0
sg4
F1.6438330627888542
sg5
F-0.1765772089377381
sg6
I0
ss(I4
I2
I00
I01
tp425
(dp426
g3
I0
sg4
I0
sg5
F-0.09506250000000002
sg6
F0.808329078905378
ss(I19
I4
I01
I00
tp427
(dp428
g3
F-0.30177145028807484
sg4
I0
sg5
F3.4530096055246435
sg6
I0
ss(I13
I4
I01
I00
tp429
(dp430
g3
I0
sg4
F1.8561922252697345
sg5
F-0.5
sg6
I0
ss(I20
I7
I00
I00
tp431
(dp432
g3
F-1.5
sg4
F-0.25
sg5
F6.235740402600237
sg6
I0
ss(I13
I9
I00
I00
tp433
(dp434
g3
F-0.22108083797045916
sg4
F-0.22339645826256155
sg5
F-0.4950428273093932
sg6
I0
ss(I18
I10
I00
I01
tp435
(dp436
g3
F-1.5
sg4
I0
sg5
F-0.75
sg6
F1.0634522894484046
ss(I16
I4
I00
I00
tp437
(dp438
g3
F-0.4523903868400426
sg4
F-0.7277831643975131
sg5
F1.4820550328232192
sg6
I0
ss(I12
I6
I00
I01
tp439
(dp440
g3
F-1.0
sg4
F3.638699786814686
sg5
F-0.5
sg6
I0
ss(I13
I6
I01
I00
tp441
(dp442
g3
I0
sg4
F2.261921152712464
sg5
F0.06614026221622171
sg6
I0
ss(I17
I1
I01
I00
tp443
(dp444
g3
I0
sg4
F0.5518882518708451
sg5
F-0.5
sg6
I0
ss(I21
I8
I01
I00
tp445
(dp446
g3
I0
sg4
I0
sg5
F14.089835202674072
sg6
I0
ss(I20
I8
I00
I01
tp447
(dp448
g3
F-1.0
sg4
F-0.5
sg5
F-0.5633049436518338
sg6
F6.52370859209379
ss(I10
I2
I00
I00
tp449
(dp450
g3
F-0.83125
sg4
F4.413552801902692
sg5
F1.1264589005622216
sg6
I0
ss(I6
I8
I00
I01
tp451
(dp452
g3
I0
sg4
F4.139035602517364
sg5
F-0.5
sg6
I0
ss(I15
I5
I00
I00
tp453
(dp454
g3
F-0.08845161195919415
sg4
F-0.6807872354025832
sg5
F1.799169414151293
sg6
I0
ss(I17
I8
I00
I00
tp455
(dp456
g3
F-1.8349609375
sg4
F-0.8310553267625762
sg5
F-0.7173413244446796
sg6
I0
ss(I15
I2
I01
I00
tp457
(dp458
g3
F-0.13215166699382397
sg4
I0
sg5
F0.5563672622390806
sg6
I0
ss(I14
I6
I00
I01
tp459
(dp460
g3
I0
sg4
I0
sg5
I0
sg6
F1.983885536245232
ss(I16
I7
I01
I00
tp461
(dp462
g3
F-0.0872861420898437
sg4
F2.6627462488193343
sg5
I0
sg6
I0
ss(I5
I8
I00
I00
tp463
(dp464
g3
F-1.0
sg4
F1.1734668719794972
sg5
F-0.5
sg6
I0
ss(I20
I3
I00
I01
tp465
(dp466
g3
I0
sg4
I0
sg5
I0
sg6
F2.689417343459922
ss(I19
I5
I01
I00
tp467
(dp468
g3
I0
sg4
F4.18330165495932
sg5
F-0.5
sg6
I0
ss(I18
I6
I00
I00
tp469
(dp470
g3
F-1.5
sg4
F-0.9375
sg5
F-0.12962551418068602
sg6
I0
ss(I19
I10
I00
I00
tp471
(dp472
g3
F-1.9986211745359623
sg4
F-0.8291677685482634
sg5
F-0.4912484120885317
sg6
I0
ss(I12
I2
I00
I00
tp473
(dp474
g3
F-0.44983169631142506
sg4
F0.7467816614298901
sg5
F-0.45520023079690775
sg6
I0
ss(I5
I6
I00
I00
tp475
(dp476
g3
F4.112158406233517
sg4
I0
sg5
F-0.025000000000000022
sg6
I0
ss(I8
I7
I00
I00
tp477
(dp478
g3
F0.24040692669334385
sg4
F5.306648501786584
sg5
F-0.28625
sg6
I0
ss(I13
I3
I01
I00
tp479
(dp480
g3
F-0.9465625
sg4
F1.8150152045825845
sg5
I0
sg6
I0
ss(I21
I9
I01
I00
tp481
(dp482
g3
I0
sg4
I0
sg5
F12.43683366145872
sg6
I0
ss(I20
I6
I00
I00
tp483
(dp484
g3
F-1.0
sg4
F-0.75
sg5
F8.518866074967196
sg6
I0
ss(I13
I10
I00
I00
tp485
(dp486
g3
F-4.397339888185513
sg4
F-0.338696210743924
sg5
F-0.5152695815113402
sg6
I0
ss(I14
I10
I00
I00
tp487
(dp488
g3
F-0.5826032956682925
sg4
F-0.49111740501532486
sg5
F-0.7744830772258628
sg6
I0
ss(I16
I3
I00
I00
tp489
(dp490
g3
F-1.3712914426692961
sg4
F-0.1509175523617785
sg5
F0.4030085747832421
sg6
I0
ss(I21
I7
I01
I00
tp491
(dp492
g3
I0
sg4
I0
sg5
F11.04719858301387
sg6
I0
ss(I16
I3
I01
I00
tp493
(dp494
g3
I0
sg4
F0.8896274271520239
sg5
I0
sg6
I0
ss(I8
I2
I00
I01
tp495
(dp496
g3
I0
sg4
I0
sg5
I0
sg6
F1.1812597741223376
ss(I16
I2
I01
I00
tp497
(dp498
g3
I0
sg4
F0.7707796886556035
sg5
F-0.03687500000000002
sg6
I0
ss(I15
I8
I00
I00
tp499
(dp500
g3
F-0.8475128424028548
sg4
F-0.2829859898159435
sg5
F-0.24348738181104768
sg6
I0
ss(I14
I3
I01
I00
tp501
(dp502
g3
I0
sg4
F1.8406156768326305
sg5
F-0.5
sg6
I0
ss(I10
I5
I00
I00
tp503
(dp504
g3
F-0.596875
sg4
F2.0547569635335217
sg5
F-0.16218749999999996
sg6
I0
ss(I15
I1
I00
I00
tp505
(dp506
g3
F-0.11302568025636339
sg4
F-0.1564288048315592
sg5
F-0.49999960185959935
sg6
I0
ss(I17
I9
I00
I00
tp507
(dp508
g3
F0.16009451168243172
sg4
F-1.0692526138058835
sg5
F-0.5192485949819123
sg6
I0
ss(I11
I1
I00
I00
tp509
(dp510
g3
F-1.21875
sg4
F0.17081210615641895
sg5
F-1.3633435974121093
sg6
I0
ss(I5
I9
I00
I00
tp511
(dp512
g3
F-1.0
sg4
F1.5226232751850577
sg5
F-0.5
sg6
I0
ss(I10
I10
I00
I01
tp513
(dp514
g3
F-1.0
sg4
F0.8845494284033608
sg5
I0
sg6
F0.816035309346351
ss(I5
I5
I00
I00
tp515
(dp516
g3
I0
sg4
F2.1712461114620694
sg5
F0.46375
sg6
I0
ss(I18
I9
I00
I00
tp517
(dp518
g3
F-1.9907423389434815
sg4
F-0.7175130436829369
sg5
F-0.7666807628655066
sg6
I0
ss(I16
I7
I00
I01
tp519
(dp520
g3
F3.2629040890689023
sg4
F-0.375
sg5
F-0.5
sg6
I0
ss(I12
I1
I00
I00
tp521
(dp522
g3
F-4.54896792454052
sg4
F0.08745689631799647
sg5
F-0.9694447631537915
sg6
I0
ss(I5
I7
I00
I00
tp523
(dp524
g3
F-0.5560750000000001
sg4
F2.195681180652856
sg5
F-0.5
sg6
I0
ss(I8
I6
I00
I00
tp525
(dp526
g3
F-1.0
sg4
F1.4784124482852161
sg5
I0
sg6
I0
ss(I17
I6
I01
I00
tp527
(dp528
g3
F-0.4395665070419922
sg4
F2.722461151278317
sg5
F-0.025000000000000022
sg6
I0
ss(I19
I2
I01
I00
tp529
(dp530
g3
F0.11215864639124629
sg4
F2.289756114548426
sg5
F-0.5
sg6
I0
ss(I4
I9
I00
I01
tp531
(dp532
g3
F-0.780625
sg4
F1.4708312223118352
sg5
I0
sg6
I0
ss(I9
I8
I00
I00
tp533
(dp534
g3
I0
sg4
F4.186649785265722
sg5
F0.19123505430943769
sg6
I0
ss(I14
I2
I01
I00
tp535
(dp536
g3
F-0.3784557908080177
sg4
F3.0257195170560154
sg5
I0
sg6
I0
ss(I16
I2
I00
I00
tp537
(dp538
g3
F-1.422607704998136
sg4
F-0.9216817297202475
sg5
F-0.7219433853898505
sg6
I0
ss(I14
I5
I00
I00
tp539
(dp540
g3
F-0.6879801762112487
sg4
F-0.08021830447248257
sg5
F-0.3925718112278811
sg6
I0
ss(I7
I7
I00
I00
tp541
(dp542
g3
F-1.0
sg4
F1.8438207089111356
sg5
F0.359690625
sg6
I0
ss(I12
I4
I00
I01
tp543
(dp544
g3
F-1.0
sg4
I0
sg5
F-0.5
sg6
F3.235451563511625
ss(I11
I5
I00
I00
tp545
(dp546
g3
F0.44492926059101856
sg4
F1.2579856723894598
sg5
F0.4614552876094192
sg6
I0
ss(I6
I4
I00
I01
tp547
(dp548
g3
I0
sg4
F0.541709631477506
sg5
I0
sg6
I0
ss(I18
I5
I00
I01
tp549
(dp550
g3
F0.0
sg4
I0
sg5
I0
sg6
F2.8137862925288575
ss(I17
I3
I01
I00
tp551
(dp552
g3
F2.940491829587976
sg4
I0
sg5
F0.4317526704490904
sg6
I0
ss(I21
I10
I01
I00
tp553
(dp554
g3
I0
sg4
I0
sg5
F15.34922988849446
sg6
I0
ss(I17
I4
I00
I00
tp555
(dp556
g3
F-0.16874409471144292
sg4
F-0.46911150514410827
sg5
F0.3422696161006262
sg6
I0
ss(I10
I4
I00
I00
tp557
(dp558
g3
F3.8067955535871225
sg4
F1.9420035391899757
sg5
F1.0424481214226171
sg6
I0
ss(I6
I10
I00
I01
tp559
(dp560
g3
F-0.8987446804487016
sg4
I0
sg5
F0.05237649144682621
sg6
F1.3951446387912152
ss(I20
I5
I01
I00
tp561
(dp562
g3
F-1.0
sg4
F2.2962928817294572
sg5
I0
sg6
I0
ss(I17
I10
I00
I00
tp563
(dp564
g3
F0.4290381689822844
sg4
F-0.8169678854625758
sg5
F-0.9997913871299133
sg6
I0
ss(I6
I3
I00
I01
tp565
(dp566
g3
I0
sg4
I0
sg5
I0
sg6
F1.894950809108831
ss(I5
I10
I00
I00
tp567
(dp568
g3
F0.09673483386596093
sg4
F1.2614466889210827
sg5
F0.21730123406644125
sg6
I0
ss(I20
I1
I00
I01
tp569
(dp570
g3
F-1.5
sg4
F-0.5
sg5
F-0.025000000000000022
sg6
F1.0680018699254843
ss(I19
I3
I01
I00
tp571
(dp572
g3
I0
sg4
F1.1957480732749004
sg5
F2.977593417638376
sg6
I0
ss(I18
I8
I00
I00
tp573
(dp574
g3
F0.937923476535298
sg4
F4.743554550171016
sg5
F-0.5571472216019016
sg6
I0
ss(I19
I8
I00
I00
tp575
(dp576
g3
F2.1125715465090766
sg4
F-0.9375
sg5
F4.778070346427368
sg6
I0
ss(I18
I3
I01
I00
tp577
(dp578
g3
I0
sg4
F2.307896188396006
sg5
I0
sg6
I0
ss(I8
I5
I00
I00
tp579
(dp580
g3
F-0.9510210733446922
sg4
F2.188948764306718
sg5
F-0.19358122020019525
sg6
I0
ss(I13
I5
I01
I00
tp581
(dp582
g3
F0.18230651944218967
sg4
F6.738829844933888
sg5
I0
sg6
I0
ss(I20
I10
I00
I00
tp583
(dp584
g3
F-1.998046875
sg4
F-0.747017819801154
sg5
F5.212128773064374
sg6
I0
ss(I9
I9
I00
I00
tp585
(dp586
g3
I0
sg4
F1.469992685494916
sg5
I0
sg6
I0
ss(I20
I4
I00
I00
tp587
(dp588
g3
F-1.96875
sg4
F0.064453125
sg5
F7.227800490856716
sg6
I0
ss(I16
I10
I01
I00
tp589
(dp590
g3
F-0.6261196679200259
sg4
F2.3321413214378586
sg5
F0.26662827123015
sg6
I0
ss(I14
I4
I00
I00
tp591
(dp592
g3
F-1.5178971681816915
sg4
F-0.17159380737108898
sg5
F-0.4798226036983062
sg6
I0
ss(I16
I1
I00
I00
tp593
(dp594
g3
F-2.4996141875791653
sg4
F-0.7685087266466104
sg5
F-0.3094070417134895
sg6
I0
ss(I10
I9
I00
I00
tp595
(dp596
g3
F0.9336253058522985
sg4
F6.628068523719609
sg5
F-0.011875156249999963
sg6
I0
ss(I15
I1
I01
I00
tp597
(dp598
g3
F-1.0
sg4
F0.5708211212956301
sg5
F-0.12265552089843726
sg6
I0
ss(I17
I5
I00
I00
tp599
(dp600
g3
F-0.28274896453485265
sg4
F-0.1566903359625722
sg5
F-0.31337840244662696
sg6
I0
ss(I10
I7
I00
I00
tp601
(dp602
g3
F0.09927414062500006
sg4
F6.32604085740961
sg5
I0
sg6
I0
ss(I8
I9
I00
I01
tp603
(dp604
g3
I0
sg4
I0
sg5
I0
sg6
F1.712296988947584
ss(I14
I9
I00
I01
tp605
(dp606
g3
I0
sg4
F1.5768377501746798
sg5
I0
sg6
I0
ss(I18
I2
I01
I00
tp607
(dp608
g3
I0
sg4
F1.6685588414454227
sg5
I0
sg6
I0
ss(I20
I5
I00
I00
tp609
(dp610
g3
F-0.75
sg4
F-0.5625
sg5
F8.659415381601693
sg6
I0
ss(I14
I8
I00
I01
tp611
(dp612
g3
F-1.0
sg4
I0
sg5
F-0.5
sg6
I0
ss(I19
I9
I00
I00
tp613
(dp614
g3
F1.5
sg4
F-0.3115058381674809
sg5
F2.6775443588572374
sg6
I0
ss(I12
I7
I00
I00
tp615
(dp616
g3
F-0.5542852038716258
sg4
F-0.3804843510667673
sg5
F-0.9007230919746902
sg6
I0
ss(I20
I7
I01
I00
tp617
(dp618
g3
I0
sg4
F0.38955380514870364
sg5
F5.1806430653719175
sg6
I0
ss(I8
I4
I00
I00
tp619
(dp620
g3
F-0.059584652395852755
sg4
F3.24298867824984
sg5
F0.11560114572328606
sg6
I0
ss(I4
I6
I00
I01
tp621
(dp622
g3
I0
sg4
F1.843592061845895
sg5
I0
sg6
I0
ss(I20
I9
I00
I00
tp623
(dp624
g3
F-1.5
sg4
F-0.984375
sg5
F7.274187125505113
sg6
I0
ss(I7
I1
I00
I00
tp625
(dp626
g3
F-1.0
sg4
F1.123415967863469
sg5
F-0.5
sg6
I0
ss(I6
I9
I00
I00
tp627
(dp628
g3
I0
sg4
F1.9511525670819094
sg5
I0
sg6
I0
ss(I8
I3
I00
I01
tp629
(dp630
g3
I0
sg4
F1.6056007907109269
sg5
I0
sg6
I0
ss(I9
I10
I00
I00
tp631
(dp632
g3
F-1.07397741755577
sg4
F2.315615887796078
sg5
F-0.016110666324786027
sg6
I0
ss(I17
I4
I01
I00
tp633
(dp634
g3
F0.1125
sg4
F1.5486243721671786
sg5
F-0.12841382626953118
sg6
I0
ss(I12
I7
I00
I01
tp635
(dp636
g3
F-0.46039374999999993
sg4
F-0.375
sg5
F-0.5
sg6
F0.8305048059029405
ss(I14
I7
I00
I00
tp637
(dp638
g3
F-1.3433615831924568
sg4
F0.052967299241256566
sg5
F-0.2340605670634562
sg6
I0
ss(I18
I9
I01
I00
tp639
(dp640
g3
I0
sg4
F0.9977900219344882
sg5
F-0.5
sg6
I0
ss(I12
I10
I00
I01
tp641
(dp642
g3
F-0.41593484977481465
sg4
F0.5
sg5
F1.3012358145158813
sg6
F4.508831263221882
ss(I10
I8
I00
I00
tp643
(dp644
g3
F-1.0
sg4
F2.4706653455942122
sg5
F-0.5
sg6
I0
ss(I6
I6
I00
I01
tp645
(dp646
g3
I0
sg4
I0
sg5
I0
sg6
F1.311672619403766
ss(I18
I7
I00
I01
tp647
(dp648
g3
I0
sg4
I0
sg5
I0
sg6
F3.1192928959068893
ss(I12
I3
I00
I01
tp649
(dp650
g3
I0
sg4
I0
sg5
F-0.5
sg6
F2.5853075209362792
ss(I17
I6
I00
I00
tp651
(dp652
g3
F-1.39545544455346
sg4
F-0.9987074405855989
sg5
F-0.4228394661908693
sg6
I0
ss(I10
I6
I00
I00
tp653
(dp654
g3
I0
sg4
F3.0601602467776097
sg5
F1.031898128108962
sg6
I0
ss(I10
I7
I00
I01
tp655
(dp656
g3
I0
sg4
F6.114242084656501
sg5
I0
sg6
I0
ss(I15
I6
I01
I00
tp657
(dp658
g3
F-0.780625
sg4
F3.9324790666835905
sg5
I0
sg6
I0
ss(I14
I2
I00
I01
tp659
(dp660
g3
I0
sg4
F1.7957116169435907
sg5
F-0.5
sg6
I0
ss(I18
I3
I00
I01
tp661
(dp662
g3
F3.8039762082521182
sg4
I0
sg5
F0.0
sg6
I0
ss(I4
I7
I00
I01
tp663
(dp664
g3
I0
sg4
F0.7513010566356271
sg5
I0
sg6
I0
ss(I20
I7
I00
I01
tp665
(dp666
g3
F-1.0
sg4
F-0.5
sg5
I0
sg6
F7.997132339255489
ss(I19
I1
I01
I00
tp667
(dp668
g3
F-1.0
sg4
F0.9347279198338971
sg5
F-0.025000000000000022
sg6
I0
ss(I18
I10
I00
I00
tp669
(dp670
g3
F-1.7145364580994622
sg4
F-0.8614817621026312
sg5
F-0.0792973662004434
sg6
I0
ss(I19
I6
I00
I00
tp671
(dp672
g3
F-1.9375
sg4
F-0.71875
sg5
F5.04417821893742
sg6
I0
ss(I12
I6
I00
I00
tp673
(dp674
g3
F-1.4510446051844426
sg4
F2.985534345936708
sg5
F-0.6615626475402848
sg6
I0
ss(I8
I3
I00
I00
tp675
(dp676
g3
F-0.8857921874999999
sg4
F0.5838677592980851
sg5
I0
sg6
I0
ss(I13
I7
I01
I00
tp677
(dp678
g3
F0.995375754634974
sg4
F1.056790616941601
sg5
F0.5
sg6
I0
ss(I20
I8
I00
I00
tp679
(dp680
g3
F-1.875
sg4
F-0.875
sg5
F8.601523097286599
sg6
I0
ss.