(dp0
(I6
I8
I00
I00
tp1
(dp2
S'double'
p3
F-1.0
sS'hit'
p4
F1.6865832023710798
sS'stand'
p5
I0
sS'split'
p6
I0
ss(I14
I6
I00
I00
tp7
(dp8
g3
F-0.585899133351858
sg4
F-0.6932626886163212
sg5
F-0.8513964058000747
sg6
I0
ss(I17
I7
I00
I00
tp9
(dp10
g3
F-1.1846142101028048
sg4
F-0.49224163756524486
sg5
F0.8139179601104721
sg6
I0
ss(I12
I9
I00
I01
tp11
(dp12
S'double'
p13
F-0.5
sS'hit'
p14
F-0.2811964416503906
sS'stand'
p15
F-0.5
sS'split'
p16
I0
ss(I14
I8
I01
I00
tp17
(dp18
g3
F-0.09904676977427995
sg4
F1.0455511105161057
sg5
F-0.5
sg6
I0
ss(I13
I1
I00
I00
tp19
(dp20
g3
F-1.492170359832314
sg4
F-0.1658427248065168
sg5
F-0.9998199376539502
sg6
I0
ss(I12
I10
I01
I01
tp21
(dp22
g3
F-0.9899648422897109
sg4
F1.7030428185321858
sg5
F-0.5
sg6
I0
ss(I15
I10
I01
I00
tp23
(dp24
g3
F0.06729197539540088
sg4
F1.4469636669226351
sg5
F0.39372200782088296
sg6
I0
ss(I14
I5
I00
I01
tp25
(dp26
S'double'
p27
I0
sS'hit'
p28
F-0.2489680444310134
sS'stand'
p29
F-0.025000000000000022
sS'split'
p30
F2.2024537522590846
ss(I12
I4
I00
I00
tp31
(dp32
g3
F-1.3443925717509693
sg4
F-0.3156046950630351
sg5
F-0.3486894327249165
sg6
I0
ss(I16
I4
I01
I00
tp33
(dp34
g3
I0
sg4
F2.0786154032532185
sg5
F-0.07671803935798716
sg6
I0
ss(I16
I6
I00
I01
tp35
(dp36
S'double'
p37
I0
sS'hit'
p38
I0
sS'stand'
p39
F0.5
sS'split'
p40
I0
ss(I16
I1
I00
I01
tp41
(dp42
g3
F-1.0
sg4
I0
sg5
I0
sg6
F0.8775186741303665
ss(I6
I7
I00
I00
tp43
(dp44
g3
F-1.0
sg4
F3.6635330849528778
sg5
F-0.5
sg6
I0
ss(I9
I6
I00
I00
tp45
(dp46
g3
I0
sg4
F2.7099491626913226
sg5
I0
sg6
I0
ss(I7
I9
I00
I00
tp47
(dp48
g3
I0
sg4
F1.1639437884806116
sg5
I0
sg6
I0
ss(I16
I3
I01
I00
tp49
(dp50
g3
I0
sg4
F4.759458917909158
sg5
F-0.5
sg6
I0
ss(I15
I3
I00
I00
tp51
(dp52
g3
F-1.1956647819230328
sg4
F-0.6024328975047576
sg5
F1.504556100729343
sg6
I0
ss(I20
I9
I00
I01
tp53
(dp54
g13
F-1.0
sg14
I0
sg15
F5.217812635331217
sg16
I0
ss(I15
I9
I01
I00
tp55
(dp56
g3
F-0.6900625
sg4
F0.641979801789577
sg5
F-0.5
sg6
I0
ss(I14
I2
I00
I00
tp57
(dp58
g3
F-1.1761020090699912
sg4
F0.011705814261553815
sg5
F-0.21688214840080672
sg6
I0
ss(I17
I3
I00
I00
tp59
(dp60
g3
F-1.2171689620401538
sg4
F-0.09178242214551335
sg5
F0.06195807667877423
sg6
I0
ss(I10
I2
I00
I01
tp61
(dp62
g37
I0
sg38
I0
sg39
I0
sg40
F2.1946824654638197
ss(I16
I3
I00
I01
tp63
(dp64
g3
F-1.0
sg4
F0.8158596691687141
sg5
F-0.5
sg6
I0
ss(I19
I8
I01
I00
tp65
(dp66
g3
I0
sg4
F1.7828556121147683
sg5
I0
sg6
I0
ss(I14
I4
I01
I00
tp67
(dp68
g37
F4.63367093932457
sg38
I0
sg39
I0
sg40
I0
ss(I13
I5
I00
I00
tp69
(dp70
g3
F-1.522052833067278
sg4
F-0.1380477443390204
sg5
F-0.0038096622565935157
sg6
I0
ss(I17
I5
I01
I00
tp71
(dp72
g27
F-0.009847450896780852
sg28
F5.471333677187588
sg29
F-0.025000000000000022
sg30
I0
ss(I16
I10
I00
I00
tp73
(dp74
g3
F-1.4836210044145366
sg4
F-2.4037742285820998
sg5
F0.7418834869888595
sg6
I0
ss(I11
I4
I00
I00
tp75
(dp76
g3
F-0.78625
sg4
F2.778801513910939
sg5
I0
sg6
I0
ss(I14
I1
I00
I01
tp77
(dp78
g3
F-1.0
sg4
F-0.5
sg5
F-0.5
sg6
F0.6341466958117681
ss(I12
I8
I00
I00
tp79
(dp80
g3
F-0.5606529243914715
sg4
F-0.4572355169347208
sg5
F-0.9287021325692552
sg6
I0
ss(I20
I2
I00
I00
tp81
(dp82
g3
F-1.75
sg4
F-0.984375
sg5
F5.754974455350402
sg6
I0
ss(I10
I5
I00
I01
tp83
(dp84
g3
F0.28469520815400906
sg4
I0
sg5
I0
sg6
I0
ss(I7
I2
I00
I00
tp85
(dp86
g3
I0
sg4
F0.6035716769630289
sg5
I0
sg6
I0
ss(I14
I7
I01
I00
tp87
(dp88
g3
I0
sg4
F2.052310372243875
sg5
F-0.025000000000000022
sg6
I0
ss(I10
I1
I00
I00
tp89
(dp90
g3
F-0.22541144140625002
sg4
F0.97476882662368
sg5
F-0.5
sg6
I0
ss(I17
I6
I01
I00
tp91
(dp92
g13
I0
sg14
F3.0267103216346287
sg15
I0
sg16
I0
ss(I16
I2
I00
I01
tp93
(dp94
g27
I0
sg28
I0
sg29
I0
sg30
F2.4757747142082254
ss(I8
I10
I00
I00
tp95
(dp96
g3
F0.0
sg4
F1.2494845982298926
sg5
F-0.025000000000000022
sg6
I0
ss(I20
I8
I01
I00
tp97
(dp98
g3
I0
sg4
F3.78493106569988
sg5
I0
sg6
I0
ss(I19
I1
I00
I00
tp99
(dp100
g3
F-0.130859375
sg4
F-0.9335931539535522
sg5
F-0.3703955213612542
sg6
I0
ss(I6
I3
I00
I00
tp101
(dp102
g3
I0
sg4
F6.128984937337918
sg5
I0
sg6
I0
ss(I7
I1
I00
I00
tp103
(dp104
g3
F-0.23593750000000002
sg4
F0.6135592441749798
sg5
F-0.5
sg6
I0
ss(I14
I9
I00
I00
tp105
(dp106
g3
F-1.3543547296602134
sg4
F-2.2089858650143213
sg5
F-0.5722967775854548
sg6
I0
ss(I9
I2
I00
I00
tp107
(dp108
g3
I0
sg4
F1.178688914863705
sg5
I0
sg6
I0
ss(I20
I10
I00
I01
tp109
(dp110
g3
I0
sg4
I0
sg5
F3.212172254831919
sg6
I0
ss(I15
I7
I00
I00
tp111
(dp112
g3
F0.31517539791175286
sg4
F-0.13610267299462864
sg5
F-0.7283731842770895
sg6
I0
ss(I19
I7
I01
I00
tp113
(dp114
g3
I0
sg4
F1.5385463976210005
sg5
I0
sg6
I0
ss(I18
I4
I00
I00
tp115
(dp116
g3
F-1.0
sg4
F-0.921875
sg5
F-0.036935331027178664
sg6
I0
ss(I5
I4
I00
I00
tp117
(dp118
g13
F-0.5278401808930177
sg14
F2.2632308883604884
sg15
F-0.5
sg16
I0
ss(I16
I5
I00
I00
tp119
(dp120
g3
F-1.7501298582426834
sg4
F-0.6984515674990628
sg5
F-0.2917007122386628
sg6
I0
ss(I12
I3
I00
I00
tp121
(dp122
g3
F-1.6090566078133597
sg4
F0.30490861892324184
sg5
F-0.22275300526644168
sg6
I0
ss(I10
I6
I00
I01
tp123
(dp124
g37
I0
sg38
I0
sg39
I0
sg40
F0.9711915475194872
ss(I19
I4
I01
I00
tp125
(dp126
g3
I0
sg4
F1.8670541704845922
sg5
F-0.5
sg6
I0
ss(I13
I9
I00
I00
tp127
(dp128
g3
F1.7828749217856408
sg4
F-0.39786598608560736
sg5
F-0.8648596702337367
sg6
I0
ss(I18
I3
I00
I01
tp129
(dp130
g13
F-1.0
sg14
I0
sg15
F-0.5
sg16
F1.3372917800155073
ss(I17
I1
I01
I00
tp131
(dp132
g27
F-1.0
sg28
F6.774694840697277
sg29
F-0.5
sg30
I0
ss(I6
I8
I00
I01
tp133
(dp134
S'double'
p135
I0
sS'hit'
p136
I0
sS'stand'
p137
I0
sS'split'
p138
F1.0943132218838283
ss(I15
I2
I01
I00
tp139
(dp140
g27
I0
sg28
F1.4380947947044174
sg29
F-0.5
sg30
I0
ss(I14
I6
I00
I01
tp141
(dp142
S'double'
p143
I0
sS'hit'
p144
I0
sS'stand'
p145
I0
sS'split'
p146
F1.8051064928740517
ss(I19
I10
I00
I00
tp147
(dp148
g3
F-1.5910168988603863
sg4
F-0.9824211034323656
sg5
F-0.2703421084347416
sg6
I0
ss(I18
I1
I01
I00
tp149
(dp150
g3
F-0.8903125
sg4
F0.7434025972059254
sg5
I0
sg6
I0
ss(I13
I3
I01
I00
tp151
(dp152
g3
F-0.775
sg4
F8.067591931789169
sg5
F-0.5
sg6
I0
ss(I21
I9
I01
I00
tp153
(dp154
g3
I0
sg4
I0
sg5
F14.421490828694026
sg6
I0
ss(I20
I6
I00
I00
tp155
(dp156
g3
F-1.0
sg4
F-0.5
sg5
F8.741065184941398
sg6
I0
ss(I7
I6
I00
I00
tp157
(dp158
g3
I0
sg4
F1.8738681632431349
sg5
F-0.025000000000000022
sg6
I0
ss(I15
I8
I00
I00
tp159
(dp160
g3
F1.8520531123329222
sg4
F0.6443616013367564
sg5
F-0.027216104046717926
sg6
I0
ss(I14
I3
I01
I00
tp161
(dp162
g3
F-1.0
sg4
F2.411606133961299
sg5
F-0.025000000000000022
sg6
I0
ss(I10
I5
I00
I00
tp163
(dp164
g3
I0
sg4
F4.217254281926282
sg5
I0
sg6
I0
ss(I17
I2
I01
I00
tp165
(dp166
g3
F1.0
sg4
F1.7199729972767455
sg5
I0
sg6
I0
ss(I5
I9
I00
I00
tp167
(dp168
g13
I0
sg14
F1.8871271783950188
sg15
I0
sg16
I0
ss(I8
I6
I00
I00
tp169
(dp170
g3
I0
sg4
F3.3025273038855842
sg5
I0
sg6
I0
ss(I16
I9
I00
I01
tp171
(dp172
g37
I0
sg38
F-0.5
sg39
I0
sg40
F1.696790110209419
ss(I14
I5
I00
I00
tp173
(dp174
g3
F0.226011280131179
sg4
F-0.003589543767750336
sg5
F-0.6354514337208459
sg6
I0
ss(I13
I4
I01
I00
tp175
(dp176
g13
I0
sg14
F3.0614082378030485
sg15
I0
sg16
I0
ss(I12
I4
I00
I01
tp177
(dp178
g27
I0
sg28
F-0.5
sg29
F-0.20341890625
sg30
F0.25
ss(I11
I5
I00
I00
tp179
(dp180
g3
I0
sg4
F2.3374035817651975
sg5
F-0.5
sg6
I0
ss(I21
I10
I01
I00
tp181
(dp182
g3
I0
sg4
I0
sg5
F14.999668621166817
sg6
I0
ss(I17
I4
I00
I00
tp183
(dp184
g3
F-0.9904146845143724
sg4
F-0.9505077498389873
sg5
F-0.22492677595382315
sg6
I0
ss(I20
I1
I00
I01
tp185
(dp186
g3
I0
sg4
I0
sg5
I0
sg6
F0.5825685940759572
ss(I19
I3
I01
I00
tp187
(dp188
g3
I0
sg4
F4.193801451284193
sg5
F-0.5
sg6
I0
ss(I18
I8
I00
I00
tp189
(dp190
g3
F-1.4375
sg4
F0.16667809386544985
sg5
F-0.5912735924366775
sg6
I0
ss(I20
I3
I01
I00
tp191
(dp192
g3
I0
sg4
F3.9220768772430223
sg5
I0
sg6
I0
ss(I16
I1
I00
I00
tp193
(dp194
g3
F-2.4776152617165117
sg4
F-0.9815464421110897
sg5
F-0.8753588488876783
sg6
I0
ss(I15
I1
I01
I00
tp195
(dp196
g3
F-0.8664767824023438
sg4
F3.829857129092113
sg5
F-0.5
sg6
I0
ss(I8
I9
I00
I01
tp197
(dp198
g3
I0
sg4
I0
sg5
F-0.5
sg6
F1.804941489004909
ss(I18
I2
I01
I00
tp199
(dp200
g3
F-0.775
sg4
F3.1267955152395266
sg5
I0
sg6
I0
ss(I12
I7
I00
I00
tp201
(dp202
g3
F3.9048553714610668
sg4
F-0.49181268059877326
sg5
F-0.9828969686737061
sg6
I0
ss(I20
I9
I00
I00
tp203
(dp204
g3
I0
sg4
I0
sg5
F7.571866932720573
sg6
I0
ss(I10
I8
I00
I00
tp205
(dp206
g3
F-1.0
sg4
F1.4602404592863971
sg5
F-0.5
sg6
I0
ss(I12
I1
I01
I01
tp207
(dp208
S'double'
p209
I0
sS'hit'
p210
I0
sS'stand'
p211
F-0.5
sS'split'
p212
I0
ss(I18
I7
I00
I01
tp213
(dp214
g3
I0
sg4
F-0.5
sg5
F3.947862005707566
sg6
I0
ss(I15
I6
I01
I00
tp215
(dp216
g3
I0
sg4
F3.5432204144083
sg5
F-0.5
sg6
I0
ss(I14
I2
I00
I01
tp217
(dp218
g27
I0
sg28
I0
sg29
I0
sg30
F0.8108695997692905
ss(I19
I6
I00
I00
tp219
(dp220
g3
I0
sg4
F-0.5
sg5
F7.092581946694597
sg6
I0
ss(I18
I5
I01
I00
tp221
(dp222
g3
I0
sg4
F4.826759706751297
sg5
I0
sg6
I0
ss(I13
I7
I01
I00
tp223
(dp224
g3
F4.024627903156652
sg4
I0
sg5
I0
sg6
I0
ss(I16
I8
I01
I00
tp225
(dp226
g3
I0
sg4
F4.486867460949787
sg5
I0
sg6
I0
ss(I7
I10
I00
I00
tp227
(dp228
g3
F-0.9337500000000001
sg4
F3.4467587971371727
sg5
F-0.5
sg6
I0
ss(I16
I10
I00
I01
tp229
(dp230
g3
F-1.0
sg4
F-0.4434344942435797
sg5
F-0.5
sg6
F1.0604797730543405
ss(I4
I7
I00
I01
tp231
(dp232
g27
I0
sg28
F2.8572181000816794
sg29
I0
sg30
I0
ss(I8
I2
I00
I00
tp233
(dp234
g3
I0
sg4
F1.0638446033150895
sg5
F-0.5
sg6
I0
ss(I14
I1
I00
I00
tp235
(dp236
g3
F-1.9884085487362744
sg4
F0.05065625771308352
sg5
F-0.9999999705579903
sg6
I0
ss(I13
I8
I01
I00
tp237
(dp238
g27
F-0.11204673886780236
sg28
F1.3311990878722464
sg29
F-0.5
sg30
I0
ss(I12
I8
I00
I01
tp239
(dp240
g13
F-0.695452531644498
sg14
I0
sg15
F-0.025000000000000022
sg16
F1.7010446313150462
ss(I20
I2
I00
I01
tp241
(dp242
g3
I0
sg4
I0
sg5
I0
sg6
F1.6931488086602693
ss(I20
I5
I00
I01
tp243
(dp244
g3
F-1.0
sg4
F-0.5
sg5
F-0.025000000000000022
sg6
F5.199763766208005
ss(I13
I2
I00
I00
tp245
(dp246
g3
F-0.9056751079943048
sg4
F-0.2489964118054266
sg5
F0.10893013101047083
sg6
I0
ss(I8
I10
I00
I01
tp247
(dp248
g27
F-0.8769891867570307
sg28
I0
sg29
I0
sg30
F1.2743766063818325
ss(I20
I7
I01
I00
tp249
(dp250
g3
I0
sg4
F6.614454913400388
sg5
I0
sg6
I0
ss(I15
I5
I01
I00
tp251
(dp252
g3
I0
sg4
F6.128514556845677
sg5
I0
sg6
I0
ss(I8
I5
I00
I01
tp253
(dp254
g3
I0
sg4
I0
sg5
I0
sg6
F3.5825482982082617
ss(I18
I6
I01
I00
tp255
(dp256
g3
I0
sg4
F4.739773047864043
sg5
I0
sg6
I0
ss(I4
I8
I00
I01
tp257
(dp258
S'double'
p259
I0
sS'hit'
p260
F2.966308681748692
sS'stand'
p261
I0
sS'split'
p262
I0
ss(I19
I5
I00
I00
tp263
(dp264
g3
F-1.5
sg4
F-0.25
sg5
F6.062364760403103
sg6
I0
ss(I18
I4
I00
I01
tp265
(dp266
g3
I0
sg4
I0
sg5
F-0.5
sg6
F1.8058850635236057
ss(I4
I3
I00
I01
tp267
(dp268
g37
F-0.6863078125
sg38
F2.2002599220767216
sg39
I0
sg40
I0
ss(I12
I5
I01
I01
tp269
(dp270
g13
F-1.0
sg14
I0
sg15
F-0.5
sg16
F8.443639777517603
ss(I17
I9
I01
I00
tp271
(dp272
g27
F-0.5
sg28
F1.2975750773032413
sg29
I0
sg30
I0
ss(I11
I8
I00
I00
tp273
(dp274
g3
F-0.2734375
sg4
F1.9026376098821123
sg5
F-0.5
sg6
I0
ss(I19
I2
I00
I00
tp275
(dp276
g3
I0
sg4
I0
sg5
F2.150723429202306
sg6
I0
ss(I18
I9
I01
I00
tp277
(dp278
g3
F-0.7588980859375
sg4
F1.0612615171902031
sg5
I0
sg6
I0
ss(I6
I6
I00
I00
tp279
(dp280
g27
F-0.27778983638940424
sg28
F2.896559030741259
sg29
I0
sg30
I0
ss(I9
I7
I00
I00
tp281
(dp282
g3
I0
sg4
F2.0273030432399746
sg5
I0
sg6
I0
ss(I21
I1
I01
I00
tp283
(dp284
g3
I0
sg4
I0
sg5
F13.42715487729431
sg6
I0
ss(I10
I7
I00
I01
tp285
(dp286
g3
F-0.94375
sg4
I0
sg5
I0
sg6
F2.554307000782672
ss(I18
I3
I00
I00
tp287
(dp288
g3
F-1.921875
sg4
F-0.74951171875
sg5
F3.1953345081032385
sg6
I0
ss(I17
I10
I01
I00
tp289
(dp290
g3
I0
sg4
F8.335218623722662
sg5
I0
sg6
I0
ss(I5
I1
I00
I00
tp291
(dp292
g27
F-0.3916484375
sg28
F0.8067084182175512
sg29
I0
sg30
I0
ss(I20
I4
I01
I00
tp293
(dp294
g27
I0
sg28
I0
sg29
F5.0633771619881
sg30
I0
ss(I21
I2
I01
I00
tp295
(dp296
g3
I0
sg4
I0
sg5
F14.353486736627122
sg6
I0
ss(I20
I6
I00
I01
tp297
(dp298
g3
I0
sg4
I0
sg5
F3.4382194988969292
sg6
I0
ss(I6
I5
I00
I01
tp299
(dp300
g27
F-0.019560711591148028
sg28
I0
sg29
F-0.5
sg30
F0.6795489266153409
ss(I13
I6
I00
I00
tp301
(dp302
g3
F-1.639369218688894
sg4
F1.5797471049263774
sg5
F-0.8942508421164287
sg6
I0
ss(I8
I6
I00
I01
tp303
(dp304
g13
F-0.8808843643553458
sg14
I0
sg15
F-0.20341890625
sg16
F2.882490536563025
ss(I16
I9
I00
I00
tp305
(dp306
g3
F-1.5454167428264876
sg4
F-0.198375423883001
sg5
F-0.7479899254216823
sg6
I0
ss(I8
I1
I00
I01
tp307
(dp308
g259
I0
sg260
F0.8597364933409575
sg261
I0
sg262
I0
ss(I18
I10
I01
I00
tp309
(dp310
g3
I0
sg4
F1.463701512345816
sg5
I0
sg6
I0
ss(I14
I8
I00
I01
tp311
(dp312
g259
F0.3587050227086328
sg260
I0
sg261
I0
sg262
I0
ss(I20
I1
I00
I00
tp313
(dp314
g3
F-7.867813110351562e-06
sg4
F-0.7656249850692243
sg5
F0.29974555412267667
sg6
I0
ss(I18
I8
I00
I01
tp315
(dp316
g27
F-0.09533877941472113
sg28
I0
sg29
F0.0
sg30
F2.5804846752258213
ss(I7
I3
I00
I00
tp317
(dp318
g3
I0
sg4
F2.033312102118782
sg5
F-0.5
sg6
I0
ss(I12
I9
I01
I01
tp319
(dp320
g3
I0
sg4
I0
sg5
I0
sg6
F3.390036279619583
ss(I8
I9
I00
I00
tp321
(dp322
g3
F-1.0
sg4
F0.9219817016053793
sg5
F-0.5
sg6
I0
ss(I6
I2
I00
I00
tp323
(dp324
g259
I0
sg260
F1.5414480106313653
sg261
I0
sg262
I0
ss(I14
I8
I00
I00
tp325
(dp326
g3
F2.1276732123578386
sg4
F0.24869291981924943
sg5
F-0.015671608075886634
sg6
I0
ss(I9
I3
I00
I00
tp327
(dp328
g3
F-1.0
sg4
F3.678432146199887
sg5
I0
sg6
I0
ss(I21
I5
I01
I00
tp329
(dp330
g3
I0
sg4
I0
sg5
F14.741980909222697
sg6
I0
ss(I15
I4
I00
I00
tp331
(dp332
g3
F-0.8928530500674384
sg4
F-0.3152835827412027
sg5
F0.5348807512796323
sg6
I0
ss(I10
I8
I00
I01
tp333
(dp334
g3
F-0.16249999999999998
sg4
F4.678688734207784
sg5
F-0.5
sg6
I0
ss(I18
I7
I00
I00
tp335
(dp336
g3
F-1.0
sg4
F-0.96875
sg5
F1.530906170213013
sg6
I0
ss(I5
I5
I00
I00
tp337
(dp338
g27
F-0.38749999999999996
sg28
F1.134636594658839
sg29
F-0.5
sg30
I0
ss(I16
I4
I00
I00
tp339
(dp340
g3
F-1.70183164860245
sg4
F-0.2633465058646811
sg5
F-0.6706057683895876
sg6
I0
ss(I21
I6
I01
I00
tp341
(dp342
g27
I0
sg28
I0
sg29
F13.263684105652825
sg30
I0
ss(I17
I8
I00
I00
tp343
(dp344
g3
F-1.9140036683063169
sg4
F-0.5000312574542846
sg5
F-0.8419759939905096
sg6
I0
ss(I6
I1
I00
I01
tp345
(dp346
g13
I0
sg14
F0.7541632432784686
sg15
I0
sg16
I0
ss(I12
I2
I00
I00
tp347
(dp348
g3
F-1.516296079647491
sg4
F2.9801886849876453
sg5
F-0.9094520794057208
sg6
I0
ss(I13
I10
I00
I00
tp349
(dp350
g3
F-1.901062542596601
sg4
F0.6544303526623901
sg5
F-0.8003782279140998
sg6
I0
ss(I8
I2
I00
I01
tp351
(dp352
g135
I0
sg136
F2.0381241323431114
sg137
I0
sg138
I0
ss(I11
I1
I00
I00
tp353
(dp354
g27
F-1.685678564025879
sg28
F0.6850905794284736
sg29
F-0.37437548828125006
sg30
I0
ss(I16
I7
I00
I01
tp355
(dp356
g27
F-1.0
sg28
F-0.375
sg29
I0
sg30
F4.332329122745275
ss(I9
I8
I00
I00
tp357
(dp358
g3
F-0.275
sg4
F3.1483857277749654
sg5
F-0.5
sg6
I0
ss(I20
I5
I00
I00
tp359
(dp360
g3
F-1.0
sg4
F-0.5
sg5
F5.940113005371751
sg6
I0
ss(I7
I7
I00
I00
tp361
(dp362
g3
I0
sg4
F0.9462297562489913
sg5
I0
sg6
I0
ss(I15
I9
I00
I00
tp363
(dp364
g3
F-0.9868094724379961
sg4
F-0.3252836618495363
sg5
F-0.09235217497014372
sg6
I0
ss(I10
I4
I00
I00
tp365
(dp366
g3
I0
sg4
F4.374010561319705
sg5
I0
sg6
I0
ss(I5
I10
I00
I00
tp367
(dp368
g3
I0
sg4
F3.0351575531836903
sg5
I0
sg6
I0
ss(I8
I5
I00
I00
tp369
(dp370
g3
F-0.28884824133425613
sg4
F1.2502935672323496
sg5
F-0.15829390624999998
sg6
I0
ss(I14
I4
I00
I00
tp371
(dp372
g3
F-1.7586114010430163
sg4
F-0.25575382980210304
sg5
F-0.7493914882540147
sg6
I0
ss(I17
I5
I00
I00
tp373
(dp374
g3
F-4.218646850774676
sg4
F-1.0409719107453852
sg5
F-0.2557384065535163
sg6
I0
ss(I10
I3
I00
I01
tp375
(dp376
g3
I0
sg4
F0.375
sg5
I0
sg6
I0
ss(I12
I7
I00
I01
tp377
(dp378
g3
I0
sg4
I0
sg5
F-0.5
sg6
F3.1590913805483214
ss(I6
I6
I00
I01
tp379
(dp380
g37
I0
sg38
F4.000171185113466
sg39
I0
sg40
I0
ss(I12
I4
I01
I01
tp381
(dp382
g3
I0
sg4
I0
sg5
I0
sg6
F10.874502219705793
ss(I12
I6
I00
I00
tp383
(dp384
g3
F-1.200560466363553
sg4
F2.7057099876196418
sg5
F-0.6852227451990581
sg6
I0
ss(I20
I8
I00
I00
tp385
(dp386
g3
I0
sg4
F-0.5
sg5
F8.546250853627146
sg6
I0
ss(I16
I6
I01
I00
tp387
(dp388
g3
F-0.07407819921875003
sg4
F5.746446531015918
sg5
I0
sg6
I0
ss(I14
I9
I01
I00
tp389
(dp390
g27
I0
sg28
F1.770512897080315
sg29
F-0.5
sg30
I0
ss(I19
I7
I00
I00
tp391
(dp392
g3
I0
sg4
F-0.5
sg5
F4.781018659265998
sg6
I0
ss(I6
I5
I00
I00
tp393
(dp394
g3
I0
sg4
F0.8413908423897896
sg5
I0
sg6
I0
ss(I4
I4
I00
I01
tp395
(dp396
g27
F0.4277551667542041
sg28
I0
sg29
I0
sg30
I0
ss(I9
I4
I00
I00
tp397
(dp398
g3
F-0.35284374999999996
sg4
F0.8581777755971519
sg5
I0
sg6
I0
ss(I16
I5
I01
I00
tp399
(dp400
g3
F0.0
sg4
F7.158731231647897
sg5
F-0.5
sg6
I0
ss(I12
I1
I00
I01
tp401
(dp402
g13
F-0.32642274667171955
sg14
F-0.2207987351551759
sg15
I0
sg16
I0
ss(I8
I1
I00
I00
tp403
(dp404
g3
F-1.0
sg4
F0.8368655507576033
sg5
I0
sg6
I0
ss(I6
I10
I00
I00
tp405
(dp406
g3
I0
sg4
F1.8567776664476698
sg5
F-0.025000000000000022
sg6
I0
ss(I17
I1
I00
I00
tp407
(dp408
g3
F-1.9999999962747097
sg4
F-0.9672517906530479
sg5
F-0.3749410547539501
sg6
I0
ss(I19
I10
I01
I00
tp409
(dp410
g3
I0
sg4
F0.7281190228299934
sg5
F-0.5
sg6
I0
ss(I14
I10
I01
I00
tp411
(dp412
g3
F-1.0
sg4
F2.951611193783039
sg5
I0
sg6
I0
ss(I13
I3
I00
I00
tp413
(dp414
g3
F2.2654154502218895
sg4
F-0.8295508187289743
sg5
F2.6838316598632814
sg6
I0
ss(I6
I2
I00
I01
tp415
(dp416
g143
F-0.7723023440670013
sg144
F0.7436300722122675
sg145
I0
sg146
I0
ss(I12
I8
I01
I01
tp417
(dp418
g3
F-1.0
sg4
I0
sg5
F1.734639749609375
sg6
I0
ss(I15
I8
I01
I00
tp419
(dp420
g27
I0
sg28
F2.508871367679003
sg29
I0
sg30
I0
ss(I11
I6
I00
I00
tp421
(dp422
g3
F-0.09328909960937493
sg4
F4.57234269916068
sg5
I0
sg6
I0
ss(I6
I9
I00
I01
tp423
(dp424
g13
I0
sg14
I0
sg15
I0
sg16
F1.3265625079231955
ss(I14
I7
I00
I01
tp425
(dp426
g3
F0.0
sg4
F-0.07726586363445254
sg5
F-0.5
sg6
F3.797558140531612
ss(I12
I10
I00
I00
tp427
(dp428
g3
F-1.8461020409748388
sg4
F1.9037958911067157
sg5
F-0.8663237787951719
sg6
I0
ss(I16
I2
I01
I00
tp429
(dp430
g3
F-1.0
sg4
F1.7095907685266525
sg5
F-0.09506250000000002
sg6
I0
ss(I14
I5
I01
I00
tp431
(dp432
g13
F-0.44691987864483906
sg14
F1.8396707968311747
sg15
F-0.5
sg16
I0
ss(I17
I4
I01
I00
tp433
(dp434
g3
I0
sg4
F4.602198907726691
sg5
I0
sg6
I0
ss(I16
I4
I00
I01
tp435
(dp436
g27
F-0.8386768228971981
sg28
F-0.5
sg29
I0
sg30
I0
ss(I11
I9
I00
I00
tp437
(dp438
g3
F-0.5
sg4
F1.5836053568428816
sg5
F-0.025000000000000022
sg6
I0
ss(I20
I10
I01
I00
tp439
(dp440
g3
I0
sg4
F3.0158672089681784
sg5
I0
sg6
I0
ss(I19
I3
I00
I00
tp441
(dp442
g3
F-1.0
sg4
F-0.5
sg5
F5.466404860776271
sg6
I0
ss(I6
I1
I00
I00
tp443
(dp444
g3
I0
sg4
F2.296387766248351
sg5
F-0.5
sg6
I0
ss(I12
I2
I00
I01
tp445
(dp446
g27
I0
sg28
F-0.5
sg29
F-0.025000000000000022
sg30
F0.9880006785728186
ss(I14
I10
I00
I01
tp447
(dp448
g27
F-0.38095774682570216
sg28
F-0.09158207195808282
sg29
F-0.5
sg30
F1.3988607623751736
ss(I16
I1
I01
I00
tp449
(dp450
g3
I0
sg4
F3.1571652120463387
sg5
F-0.5
sg6
I0
ss(I12
I5
I00
I01
tp451
(dp452
g135
F-1.0
sg136
F4.131599474124057
sg137
I0
sg138
I0
ss(I19
I9
I01
I00
tp453
(dp454
g3
F0.6437139048186604
sg4
F0.6323591687563542
sg5
F3.2393152082414245
sg6
I0
ss(I18
I2
I00
I00
tp455
(dp456
g3
F-2.3125
sg4
F-0.6985462272765146
sg5
F-0.2268370682174959
sg6
I0
ss(I5
I2
I00
I00
tp457
(dp458
g259
I0
sg260
F1.074026479297721
sg261
F-0.5
sg262
I0
ss(I20
I9
I01
I00
tp459
(dp460
g3
I0
sg4
F2.9021874984261764
sg5
I0
sg6
I0
ss(I16
I7
I00
I00
tp461
(dp462
g3
F-1.8090011735806955
sg4
F-0.673871256757294
sg5
F-0.9624757084203965
sg6
I0
ss(I10
I4
I00
I01
tp463
(dp464
g3
I0
sg4
I0
sg5
F-0.025000000000000022
sg6
F0.8103663895573507
ss(I19
I6
I01
I00
tp465
(dp466
g3
I0
sg4
F3.8286967889696797
sg5
I0
sg6
I0
ss(I14
I6
I01
I00
tp467
(dp468
g3
I0
sg4
F4.067662009890674
sg5
I0
sg6
I0
ss(I13
I7
I00
I00
tp469
(dp470
g3
F-0.2487980983744844
sg4
F-0.3949456431757824
sg5
F-0.018849255771019813
sg6
I0
ss(I18
I1
I00
I01
tp471
(dp472
g13
I0
sg14
I0
sg15
I0
sg16
F0.901910934168772
ss(I17
I7
I01
I00
tp473
(dp474
g27
I0
sg28
F2.7241327437869587
sg29
I0
sg30
I0
ss(I16
I8
I00
I00
tp475
(dp476
g3
F-1.7234711934208877
sg4
F0.007733979430294913
sg5
F-0.6192113550734697
sg6
I0
ss(I11
I2
I00
I00
tp477
(dp478
g3
I0
sg4
F2.5796196045219926
sg5
F-0.5
sg6
I0
ss(I14
I3
I00
I01
tp479
(dp480
g13
I0
sg14
F-0.5
sg15
F-0.025000000000000022
sg16
F2.172497019164263
ss(I13
I1
I01
I00
tp481
(dp482
g27
I0
sg28
F1.4206696707682256
sg29
F-0.5
sg30
I0
ss(I15
I10
I00
I00
tp483
(dp484
g3
F-1.6171071804085813
sg4
F-0.8944298010981842
sg5
F-0.6286265119303089
sg6
I0
ss(I14
I1
I01
I00
tp485
(dp486
g3
F-0.44680101381723786
sg4
F0.6748976715934814
sg5
I0
sg6
I0
ss(I10
I3
I00
I00
tp487
(dp488
g3
I0
sg4
F10.142852933472106
sg5
F-0.5
sg6
I0
ss(I8
I8
I00
I00
tp489
(dp490
g3
F-1.0
sg4
F1.365638168663899
sg5
F-0.5
sg6
I0
ss(I13
I2
I01
I00
tp491
(dp492
g13
F-0.685
sg14
F2.447710393979218
sg15
I0
sg16
I0
ss(I12
I6
I00
I01
tp493
(dp494
g37
I0
sg38
I0
sg39
F-0.5
sg40
F2.983406651173417
ss(I21
I8
I01
I00
tp495
(dp496
g3
I0
sg4
I0
sg5
F14.343505364435938
sg6
I0
ss(I20
I8
I00
I01
tp497
(dp498
g3
F-1.0
sg4
F-0.5
sg5
I0
sg6
F2.3032351844278987
ss(I15
I5
I00
I00
tp499
(dp500
g3
F2.7148373367616565
sg4
F-0.7312671156679246
sg5
F-0.10388990068503554
sg6
I0
ss(I20
I3
I00
I01
tp501
(dp502
g3
I0
sg4
F-0.5
sg5
I0
sg6
F9.467835105447334
ss(I19
I5
I01
I00
tp503
(dp504
g3
I0
sg4
I0
sg5
F3.3488218232214435
sg6
I0
ss(I18
I6
I00
I00
tp505
(dp506
g3
F-1.9703931900311749
sg4
F-0.7570922679584594
sg5
F2.7125560188673052
sg6
I0
ss(I5
I6
I00
I00
tp507
(dp508
g3
F-0.17207000401387584
sg4
F4.098260226648351
sg5
F-0.025000000000000022
sg6
I0
ss(I16
I3
I00
I00
tp509
(dp510
g3
F-1.8727683552328394
sg4
F1.6069338030870535
sg5
F-0.03495430085724871
sg6
I0
ss(I15
I3
I01
I00
tp511
(dp512
g3
F-0.75
sg4
F2.3361728975412466
sg5
F-0.025000000000000022
sg6
I0
ss(I17
I9
I00
I00
tp513
(dp514
g3
F-1.91493502843417
sg4
F1.8998892267778837
sg5
F-0.09656032991469757
sg6
I0
ss(I12
I1
I00
I00
tp515
(dp516
g3
F-1.6401862631484976
sg4
F0.5745588665418202
sg5
F-0.37959048867835543
sg6
I0
ss(I19
I2
I01
I00
tp517
(dp518
g27
I0
sg28
F5.508932664923078
sg29
I0
sg30
I0
ss(I4
I9
I00
I01
tp519
(dp520
g27
F-0.38609375
sg28
F2.648511085951514
sg29
F-0.5
sg30
I0
ss(I14
I2
I01
I00
tp521
(dp522
g27
I0
sg28
F1.8193143291813398
sg29
F-0.5
sg30
I0
ss(I12
I3
I01
I01
tp523
(dp524
g27
F-0.775
sg28
F1.5045595042086641
sg29
I0
sg30
I0
ss(I18
I5
I00
I01
tp525
(dp526
g3
I0
sg4
I0
sg5
I0
sg6
F2.599935041685675
ss(I17
I3
I01
I00
tp527
(dp528
g3
I0
sg4
F4.495542716174391
sg5
F-0.5
sg6
I0
ss(I6
I10
I00
I01
tp529
(dp530
g3
I0
sg4
I0
sg5
I0
sg6
F2.856029729981925
ss(I19
I8
I00
I00
tp531
(dp532
g3
I0
sg4
I0
sg5
F4.9715707369228666
sg6
I0
ss(I18
I3
I01
I00
tp533
(dp534
g3
F-1.0
sg4
F2.542235595709013
sg5
I0
sg6
I0
ss(I13
I5
I01
I00
tp535
(dp536
g3
I0
sg4
F3.9065994755776763
sg5
F-0.5
sg6
I0
ss(I9
I9
I00
I00
tp537
(dp538
g3
I0
sg4
F1.5010635135765518
sg5
I0
sg6
I0
ss(I20
I4
I00
I00
tp539
(dp540
g3
I0
sg4
I0
sg5
F4.788865087882227
sg6
I0
ss(I16
I10
I01
I00
tp541
(dp542
g3
I0
sg4
F1.77726727161174
sg5
F-0.5
sg6
I0
ss(I7
I4
I00
I00
tp543
(dp544
g3
F-4.578662867382812
sg4
F0.5958531091442703
sg5
I0
sg6
I0
ss(I10
I7
I00
I00
tp545
(dp546
g3
F-0.327716267578125
sg4
F3.4384588588544394
sg5
F-0.5
sg6
I0
ss(I8
I4
I00
I00
tp547
(dp548
g3
F-1.0
sg4
F1.5328769321901041
sg5
F-0.025000000000000022
sg6
I0
ss(I20
I2
I01
I00
tp549
(dp550
g3
F-1.0
sg4
F3.8614032618351475
sg5
I0
sg6
I0
ss(I6
I9
I00
I00
tp551
(dp552
g3
I0
sg4
F3.857438282237795
sg5
I0
sg6
I0
ss(I14
I7
I00
I00
tp553
(dp554
g3
F-1.784882863919681
sg4
F-0.8527933304948385
sg5
F-0.9543028526144892
sg6
I0
ss(I13
I6
I01
I00
tp555
(dp556
g3
F0.0
sg4
F2.4093321015180122
sg5
I0
sg6
I0
ss(I12
I10
I00
I01
tp557
(dp558
g27
I0
sg28
I0
sg29
I0
sg30
F0.7524084529605574
ss(I17
I6
I00
I00
tp559
(dp560
g3
F-1.7169123234320405
sg4
F-0.7174920540747762
sg5
F3.236031699813938
sg6
I0
ss(I16
I9
I01
I00
tp561
(dp562
g3
I0
sg4
F1.4133124800076071
sg5
I0
sg6
I0
ss(I20
I7
I00
I01
tp563
(dp564
g3
I0
sg4
F-0.5
sg5
I0
sg6
F9.022600958773463
ss(I19
I1
I01
I00
tp565
(dp566
g3
I0
sg4
F0.5026856358144808
sg5
I0
sg6
I0
ss(I18
I10
I00
I00
tp567
(dp568
g3
F-1.573469474456615
sg4
F-0.6852095004307588
sg5
F1.5688891852781017
sg6
I0
ss(I20
I1
I01
I00
tp569
(dp570
g3
I0
sg4
F0.662990991473541
sg5
I0
sg6
I0
ss(I15
I7
I01
I00
tp571
(dp572
g27
F-0.4990760608603516
sg28
F1.8993131973805846
sg29
F-0.5
sg30
I0
ss(I8
I7
I00
I01
tp573
(dp574
g27
I0
sg28
I0
sg29
F-0.025000000000000022
sg30
F3.8656077357674743
ss(I18
I4
I01
I00
tp575
(dp576
g27
I0
sg28
F5.181188398250326
sg29
I0
sg30
I0
ss(I4
I10
I00
I01
tp577
(dp578
g3
I0
sg4
F0.8855667743262938
sg5
I0
sg6
I0
ss(I12
I5
I00
I00
tp579
(dp580
g3
F0.6582869880334857
sg4
F-0.8257127809083549
sg5
F0.5603929910482063
sg6
I0
ss(I18
I2
I00
I01
tp581
(dp582
g135
I0
sg136
I0
sg137
F-0.09506250000000002
sg138
F1.8697686244998113
ss(I10
I10
I00
I00
tp583
(dp584
g3
I0
sg4
F0.6535945311249428
sg5
F-0.5
sg6
I0
ss(I12
I7
I01
I01
tp585
(dp586
g3
I0
sg4
I0
sg5
I0
sg6
F7.291117484849851
ss(I18
I9
I00
I01
tp587
(dp588
g27
I0
sg28
I0
sg29
F0.40493749999999995
sg30
I0
ss(I15
I4
I01
I00
tp589
(dp590
g27
I0
sg28
F2.442436395262278
sg29
F-0.5
sg30
I0
ss(I11
I10
I00
I00
tp591
(dp592
g3
F-0.9277018810363913
sg4
F1.268548745125428
sg5
F-0.3664190029660015
sg6
I0
ss(I19
I4
I00
I00
tp593
(dp594
g3
F-1.5
sg4
F-0.875
sg5
F1.707189995887928
sg6
I0
ss(I18
I7
I01
I00
tp595
(dp596
g27
F-1.0
sg28
F1.534604586366347
sg29
F-0.03129553209511976
sg30
I0
ss(I6
I4
I00
I00
tp597
(dp598
g27
I0
sg28
F1.5806735294841738
sg29
I0
sg30
I0
ss(I13
I9
I01
I00
tp599
(dp600
g3
I0
sg4
F2.691564247813599
sg5
I0
sg6
I0
ss(I9
I5
I00
I00
tp601
(dp602
g3
F0.6537983853295897
sg4
F2.2714261099189637
sg5
F-0.025000000000000022
sg6
I0
ss(I7
I8
I00
I00
tp603
(dp604
g3
I0
sg4
F1.1156092455515847
sg5
I0
sg6
I0
ss(I15
I2
I00
I00
tp605
(dp606
g3
F-1.5501443675192648
sg4
F-1.1395264634145292
sg5
F-0.9608946054315334
sg6
I0
ss(I18
I1
I00
I00
tp607
(dp608
g3
F-1.8475260077303193
sg4
F-0.24962234496696323
sg5
F-0.4311608458132238
sg6
I0
ss(I17
I8
I01
I00
tp609
(dp610
g3
F-1.0
sg4
F2.366097708538691
sg5
F-0.5
sg6
I0
ss(I16
I8
I00
I01
tp611
(dp612
g135
I0
sg136
I0
sg137
I0
sg138
F0.8674605062880275
ss(I10
I9
I00
I01
tp613
(dp614
g27
I0
sg28
I0
sg29
I0
sg30
F1.0290538237163023
ss(I20
I6
I01
I00
tp615
(dp616
g3
I0
sg4
F1.5261204856313664
sg5
I0
sg6
I0
ss(I14
I3
I00
I00
tp617
(dp618
g3
F-0.5121688141480096
sg4
F-0.5420403762583785
sg5
F-0.5502880527492606
sg6
I0
ss(I13
I10
I01
I00
tp619
(dp620
g3
F-0.03728124999999982
sg4
F2.060457289466351
sg5
F-0.5
sg6
I0
ss(I14
I4
I00
I01
tp621
(dp622
g37
I0
sg38
I0
sg39
F-0.5
sg40
F0.25
ss(I17
I2
I00
I00
tp623
(dp624
g3
F-1.9920352706812836
sg4
F-0.8480791048254372
sg5
F0.433918682281626
sg6
I0
ss(I13
I4
I00
I00
tp625
(dp626
g3
F-1.7650536269829873
sg4
F-0.7119115096701393
sg5
F-0.8776889020786907
sg6
I0
ss(I8
I8
I00
I01
tp627
(dp628
g259
F0.2688809880293619
sg260
I0
sg261
I0
sg262
I0
ss(I20
I5
I01
I00
tp629
(dp630
g3
I0
sg4
F5.541597487497812
sg5
I0
sg6
I0
ss(I11
I7
I00
I00
tp631
(dp632
g3
I0
sg4
F3.3474672688462097
sg5
F-0.5
sg6
I0
ss(I18
I8
I01
I00
tp633
(dp634
g3
F-1.0
sg4
F0.6298702558291461
sg5
I0
sg6
I0
ss(I12
I9
I00
I00
tp635
(dp636
g3
F-1.9085317415481462
sg4
F0.9896004417612514
sg5
F-0.9373868586297844
sg6
I0
ss(I20
I3
I00
I00
tp637
(dp638
g3
F-1.875
sg4
F-0.937255859375
sg5
F8.837856258354373
sg6
I0
ss(I18
I6
I00
I01
tp639
(dp640
g135
I0
sg136
F-0.5
sg137
F1.42625
sg138
I0
ss(I4
I1
I00
I01
tp641
(dp642
g13
I0
sg14
F1.0313956317092294
sg15
I0
sg16
I0
ss(I9
I1
I00
I00
tp643
(dp644
g3
F-1.0
sg4
F0.7995974354625149
sg5
F-0.5
sg6
I0
ss(I21
I3
I01
I00
tp645
(dp646
g3
I0
sg4
I0
sg5
F14.230081055788643
sg6
I0
ss(I15
I6
I00
I00
tp647
(dp648
g3
F-1.8515876150676505
sg4
F-0.14038507980918957
sg5
F0.15628172708296995
sg6
I0
ss(I19
I9
I00
I00
tp649
(dp650
g3
F-1.75
sg4
F-0.8209514127038011
sg5
F4.0532249550989405
sg6
I0
ss(I18
I5
I00
I00
tp651
(dp652
g3
F-0.5576939728958421
sg4
F-0.4742695635956078
sg5
F-0.5555206301114283
sg6
I0
ss(I5
I3
I00
I00
tp653
(dp654
g27
I0
sg28
F2.1018906700142153
sg29
I0
sg30
I0
ss(I16
I6
I00
I00
tp655
(dp656
g3
F-1.198449207241691
sg4
F-0.904078982151346
sg5
F-0.15988045338236312
sg6
I0
ss(I12
I2
I01
I01
tp657
(dp658
g37
I0
sg38
F2.1552195406622
sg39
I0
sg40
I0
ss(I21
I4
I01
I00
tp659
(dp660
g3
I0
sg4
I0
sg5
F15.584743045638676
sg6
I0
ss(I20
I4
I00
I01
tp661
(dp662
g3
I0
sg4
I0
sg5
I0
sg6
F2.3171255175477263
ss(I6
I7
I00
I01
tp663
(dp664
g259
I0
sg260
I0
sg261
I0
sg262
F3.0452034553392426
ss(I13
I8
I00
I00
tp665
(dp666
g3
F1.6412615800787036
sg4
F-0.5322219512662272
sg5
F-0.2050497733087549
sg6
I0
ss(I8
I4
I00
I01
tp667
(dp668
g143
I0
sg144
I0
sg145
I0
sg146
F1.2056072124918729
ss(I11
I3
I00
I00
tp669
(dp670
g3
F-0.25
sg4
F2.1180408128033092
sg5
I0
sg6
I0
ss(I4
I2
I00
I01
tp671
(dp672
S'double'
p673
I0
sS'hit'
p674
F5.166599930972548
sS'stand'
p675
I0
sS'split'
p676
I0
ss(I20
I7
I00
I00
tp677
(dp678
g3
F-1.0
sg4
I0
sg5
F7.667687908150263
sg6
I0
ss(I18
I10
I00
I01
tp679
(dp680
g27
F-0.667024349784441
sg28
F-0.5
sg29
I0
sg30
F0.8413630477316195
ss(I4
I5
I00
I01
tp681
(dp682
g143
I0
sg144
F2.1725267855793007
sg145
F-0.5
sg146
I0
ss(I10
I2
I00
I00
tp683
(dp684
g3
I0
sg4
F0.9354437613188751
sg5
F-0.5
sg6
I0
ss(I5
I8
I00
I00
tp685
(dp686
g3
I0
sg4
F2.243101692365048
sg5
I0
sg6
I0
ss(I8
I7
I00
I00
tp687
(dp688
g3
F-1.0
sg4
F2.322159732654078
sg5
F-0.5
sg6
I0
ss(I14
I10
I00
I00
tp689
(dp690
g3
F-0.9818273733912394
sg4
F-0.776745007737747
sg5
F-0.5885029394156064
sg6
I0
ss(I21
I7
I01
I00
tp691
(dp692
g3
I0
sg4
I0
sg5
F14.84376337495042
sg6
I0
ss(I15
I1
I00
I00
tp693
(dp694
g3
F-1.000457117307189
sg4
F0.4217796487570044
sg5
F-1.2417245316247902
sg6
I0
ss(I10
I10
I00
I01
tp695
(dp696
g3
I0
sg4
F1.2735809947188879
sg5
I0
sg6
I0
ss(I18
I9
I00
I00
tp697
(dp698
g3
F1.0982016191185475
sg4
F1.6854372893591247
sg5
F0.12999564571242084
sg6
I0
ss(I5
I7
I00
I00
tp699
(dp700
g3
F-1.0
sg4
F3.5760639516090715
sg5
F-0.5
sg6
I0
ss(I10
I1
I00
I01
tp701
(dp702
S'double'
p703
I0
sS'hit'
p704
I0
sS'stand'
p705
F-0.5
sS'split'
p706
F0.5033075652133873
ss(I16
I2
I00
I00
tp707
(dp708
g3
F-1.9354293925219703
sg4
F0.4231878039351664
sg5
F-0.7257092196780333
sg6
I0
ss(I6
I4
I00
I01
tp709
(dp710
g27
I0
sg28
I0
sg29
I0
sg30
F3.3057437419119284
ss(I12
I6
I01
I01
tp711
(dp712
g3
F-0.09071539590667066
sg4
I0
sg5
I0
sg6
F4.029099537064578
ss(I17
I10
I00
I00
tp713
(dp714
g3
F-1.607539111281925
sg4
F-0.9507170037008941
sg5
F0.5273353094647484
sg6
I0
ss(I6
I3
I00
I01
tp715
(dp716
g3
I0
sg4
I0
sg5
I0
sg6
F3.103924549285207
ss(I14
I9
I00
I01
tp717
(dp718
g3
F-0.5
sg4
F-0.2625
sg5
F-0.5
sg6
F0.7462581199005089
ss(I20
I10
I00
I00
tp719
(dp720
g3
F-1.5
sg4
F-0.875
sg5
F3.5514688529374308
sg6
I0
ss(I10
I9
I00
I00
tp721
(dp722
g3
I0
sg4
F8.157389125802956
sg5
F-0.5
sg6
I0
ss(I16
I5
I00
I01
tp723
(dp724
g3
F-0.775
sg4
F-0.5
sg5
F-0.5
sg6
F0.45247836699829524
ss(I4
I6
I00
I01
tp725
(dp726
g143
F-0.4706431877098105
sg144
I0
sg145
I0
sg146
F1.9500020726415466
ss(I9
I10
I00
I00
tp727
(dp728
g3
I0
sg4
F0.5281412669506009
sg5
I0
sg6
I0
ss(I8
I3
I00
I01
tp729
(dp730
g259
I0
sg260
I0
sg261
I0
sg262
F2.3055245034800533
ss(I7
I5
I00
I00
tp731
(dp732
g3
F-0.83125
sg4
F0.750837218886131
sg5
I0
sg6
I0
ss(I16
I7
I01
I00
tp733
(dp734
g27
F-0.09162500000000007
sg28
F3.220309021074708
sg29
F-0.5
sg30
I0
ss(I12
I3
I00
I01
tp735
(dp736
g13
F-1.0
sg14
I0
sg15
I0
sg16
F1.282803022892297
ss(I10
I6
I00
I00
tp737
(dp738
g3
I0
sg4
F3.0029323622428272
sg5
F-0.09506250000000002
sg6
I0
ss(I8
I3
I00
I00
tp739
(dp740
g3
I0
sg4
F2.072112430842842
sg5
F-0.025000000000000022
sg6
I0
ss.