(dp0
(I16
I6
I01
I00
tp1
(dp2
S'double'
p3
F-0.7205096586507338
sS'hit'
p4
F2.4176893694981567
sS'stand'
p5
F-0.2774458661322623
sS'split'
p6
I0
ss(I6
I8
I00
I00
tp7
(dp8
g3
F-0.8894839114434662
sg4
F1.328648872280688
sg5
F-0.09566444472664451
sg6
I0
ss(I11
I9
I00
I00
tp9
(dp10
g3
F-0.2523066523840052
sg4
F0.9039791304295134
sg5
F-0.4813796589562632
sg6
I0
ss(I20
I7
I00
I00
tp11
(dp12
g3
F-1.9999694814904954
sg4
F-0.9999904632567223
sg5
F6.679371976694901
sg6
I0
ss(I16
I8
I01
I00
tp13
(dp14
g3
F-0.4101989768743959
sg4
F0.5102637933521483
sg5
F-0.12317832627049485
sg6
I0
ss(I14
I6
I00
I00
tp15
(dp16
g3
F-0.5079532490017465
sg4
F-0.9610534880218284
sg5
F1.2329348435240115
sg6
I0
ss(I7
I10
I00
I00
tp17
(dp18
g3
F-1.5905193664817774
sg4
F0.34558712962128757
sg5
F-0.31809863132818705
sg6
I0
ss(I14
I9
I01
I00
tp19
(dp20
g3
F-0.771836328392959
sg4
F0.18099657708350186
sg5
F-0.389525885172494
sg6
I0
ss(I15
I7
I01
I00
tp21
(dp22
g3
F-0.1900290971563494
sg4
F1.2659492093670865
sg5
F-0.22706865048359837
sg6
I0
ss(I20
I1
I00
I00
tp23
(dp24
g3
F-2.027342797256992
sg4
F-1.4999074935913406
sg5
F1.5235900386770207
sg6
I0
ss(I10
I3
I00
I01
tp25
(dp26
g3
F0.4792080591108492
sg4
F5.148926811398589
sg5
F0.5588791908031988
sg6
F0.390707955718947
ss(I17
I7
I00
I00
tp27
(dp28
g3
F-0.5702240574967592
sg4
F1.8166815975769133
sg5
F-0.1016011969359405
sg6
I0
ss(I8
I7
I00
I01
tp29
(dp30
g3
F-0.37721844838011975
sg4
F1.604182527250273
sg5
F0.4024394433062061
sg6
F0.6246373273504389
ss(I18
I4
I01
I00
tp31
(dp32
g3
F-0.31445072474909763
sg4
F2.9880177363593967
sg5
F-0.2857829155053996
sg6
I0
ss(I16
I10
I00
I01
tp33
(dp34
g3
F-2.505627063462547
sg4
F-0.9765625
sg5
F-0.6298256123054202
sg6
F0.2967407502127305
ss(I14
I9
I00
I00
tp35
(dp36
g3
F-0.7541767265847023
sg4
F-0.7064162969490506
sg5
F-0.9416222976702608
sg6
I0
ss(I16
I2
I00
I00
tp37
(dp38
g3
F-1.8079151138918044
sg4
F0.014323696362162464
sg5
F-0.8150257356030517
sg6
I0
ss(I18
I3
I01
I00
tp39
(dp40
g3
F-0.793197703274305
sg4
F3.4529593021252296
sg5
F-0.1552461624411156
sg6
I0
ss(I4
I10
I00
I01
tp41
(dp42
g3
F-1.7880992537053262
sg4
F0.1852389485761604
sg5
F-0.23600450290962868
sg6
F0.021787236784266514
ss(I19
I7
I00
I00
tp43
(dp44
g3
F-1.8749999925494194
sg4
F-0.0836885009866366
sg5
F5.30338263618271
sg6
I0
ss(I12
I5
I00
I00
tp45
(dp46
g3
F-0.8503298494648908
sg4
F1.0877079787401205
sg5
F-0.8193278467093019
sg6
I0
ss(I16
I6
I00
I00
tp47
(dp48
g3
F-1.2725920845768421
sg4
F-0.0056815307244268975
sg5
F-0.7354188010862965
sg6
I0
ss(I6
I5
I00
I00
tp49
(dp50
g3
F-0.8610028004731485
sg4
F0.8158348492137433
sg5
F0.16540653517415482
sg6
I0
ss(I8
I2
I00
I00
tp51
(dp52
g3
F-0.15931940438406056
sg4
F0.5812692205093245
sg5
F-0.2624813242115332
sg6
I0
ss(I4
I4
I00
I01
tp53
(dp54
g3
F-0.6041154680304075
sg4
F0.34507726689933105
sg5
F0.2137951505322146
sg6
F1.1605233318281147
ss(I15
I5
I00
I00
tp55
(dp56
g3
F-1.6367255331415593
sg4
F-0.21162904713601377
sg5
F-0.47918118560957773
sg6
I0
ss(I14
I8
I01
I00
tp57
(dp58
g3
F-0.4018409929070278
sg4
F0.8924762480361099
sg5
F-0.31871820522406624
sg6
I0
ss(I13
I1
I00
I00
tp59
(dp60
g3
F0.9923704813448735
sg4
F-0.4416487423281855
sg5
F-1.0937487137157622
sg6
I0
ss(I18
I2
I00
I01
tp61
(dp62
g3
F-5.375
sg4
F-0.734375
sg5
F-0.22139286347464465
sg6
F2.456578963520651
ss(I9
I4
I00
I00
tp63
(dp64
g3
F0.02632885174947447
sg4
F1.7477005655080922
sg5
F-0.008922017252056769
sg6
I0
ss(I20
I1
I01
I00
tp65
(dp66
g3
F-0.6541697348916289
sg4
F1.3406485414507219
sg5
F-0.23300156168154962
sg6
I0
ss(I14
I1
I00
I00
tp67
(dp68
g3
F-0.46662194982806005
sg4
F-0.5810327964608295
sg5
F-0.8660203269712674
sg6
I0
ss(I13
I8
I01
I00
tp69
(dp70
g3
F-0.04600661333866363
sg4
F3.4883693919785266
sg5
F-0.06983050795496365
sg6
I0
ss(I12
I8
I00
I01
tp71
(dp72
g3
F-0.6873475853900626
sg4
F-0.11329888840896546
sg5
F0.15501286735905298
sg6
F0.9641895990956659
ss(I10
I10
I00
I00
tp73
(dp74
g3
F-1.7581180502597877
sg4
F0.7039698534017687
sg5
F-0.42453217197456217
sg6
I0
ss(I18
I9
I00
I01
tp75
(dp76
g3
F-0.737642736885087
sg4
F-0.9987420518149748
sg5
F-0.5173788072400392
sg6
F1.281487248582051
ss(I12
I1
I00
I01
tp77
(dp78
g3
F-0.5132939317067519
sg4
F-0.2495604932308197
sg5
F-1.1324432599026153
sg6
F0.590839771785037
ss(I20
I2
I00
I01
tp79
(dp80
g3
F-1.2503662109375
sg4
F-0.4671630859375
sg5
F7.337857995993455
sg6
F2.1356629569212595
ss(I15
I10
I01
I00
tp81
(dp82
g3
F-0.16233082857922065
sg4
F0.3008503877271336
sg5
F-0.21582431465677576
sg6
I0
ss(I15
I2
I01
I00
tp83
(dp84
g3
F-1.1261929531341064
sg4
F3.34558508628038
sg5
F0.016747185266023673
sg6
I0
ss(I15
I4
I01
I00
tp85
(dp86
g3
F-0.8278230069889777
sg4
F4.5812037757134885
sg5
F-0.037878005148398564
sg6
I0
ss(I11
I10
I00
I00
tp87
(dp88
g3
F-0.4039498983683066
sg4
F0.7396470503446531
sg5
F-0.7421728275214138
sg6
I0
ss(I20
I5
I00
I01
tp89
(dp90
g3
F-1.999755859375
sg4
F-0.876220703125
sg5
F7.000571084404145
sg6
F3.477853133436673
ss(I14
I5
I00
I01
tp91
(dp92
g3
F-1.3725150393822987
sg4
F0.15332645925674282
sg5
F0.05410310805186347
sg6
F0.9794983818959182
ss(I19
I4
I00
I00
tp93
(dp94
g3
F-1.9779515215336854
sg4
F-1.0002635079281124
sg5
F2.100605311507202
sg6
I0
ss(I12
I4
I00
I00
tp95
(dp96
g3
F-2.079393231403536
sg4
F-0.04388723547573148
sg5
F-0.843992159826211
sg6
I0
ss(I10
I6
I00
I00
tp97
(dp98
g3
F0.18063391135131424
sg4
F3.4606586058748783
sg5
F0.3610349125483654
sg6
I0
ss(I6
I4
I00
I00
tp99
(dp100
g3
F-0.2660451932004879
sg4
F0.10219771881826578
sg5
F-0.11300110439385733
sg6
I0
ss(I8
I1
I00
I00
tp101
(dp102
g3
F-0.3990017168762052
sg4
F0.14208331935268775
sg5
F-0.4142476435375681
sg6
I0
ss(I13
I9
I01
I00
tp103
(dp104
g3
F0.0310630512796497
sg4
F0.9265042548012783
sg5
F0.22370961250218524
sg6
I0
ss(I13
I2
I00
I00
tp105
(dp106
g3
F-0.4259581900013799
sg4
F-0.28953013255370447
sg5
F-0.8892558142469255
sg6
I0
ss(I6
I10
I00
I00
tp107
(dp108
g3
F-1.9940966229308628
sg4
F0.13482340672701099
sg5
F-0.45458946278455653
sg6
I0
ss(I9
I5
I00
I00
tp109
(dp110
g3
F-0.3535550684876152
sg4
F1.754725433970997
sg5
F-0.03473171721866483
sg6
I0
ss(I8
I10
I00
I01
tp111
(dp112
g3
F-0.46881104581573696
sg4
F0.005694052519754693
sg5
F-0.02413794817563919
sg6
F0.7501106744500139
ss(I20
I3
I00
I00
tp113
(dp114
g3
F-1.9985349178314218
sg4
F-0.935058601203302
sg5
F7.648160843022769
sg6
I0
ss(I7
I8
I00
I00
tp115
(dp116
g3
F-1.953013457802379
sg4
F2.182234399868702
sg5
F-0.070728929411458
sg6
I0
ss(I15
I5
I01
I00
tp117
(dp118
g3
F-0.7641730959116263
sg4
F0.9660352714875102
sg5
F-0.18563712634698323
sg6
I0
ss(I15
I2
I00
I00
tp119
(dp120
g3
F-0.18292268698168113
sg4
F-0.2676832447814351
sg5
F-0.4462333735120706
sg6
I0
ss(I17
I1
I00
I00
tp121
(dp122
g3
F-1.6263170010381822
sg4
F-0.9360385613237897
sg5
F-0.5089097183428097
sg6
I0
ss(I8
I5
I00
I01
tp123
(dp124
g3
F0.24815129665020652
sg4
F0.6126436203135825
sg5
F3.587105333891098
sg6
F0.6429299525915381
ss(I16
I6
I00
I01
tp125
(dp126
g3
F-0.3088857167546566
sg4
F0.3272027325159867
sg5
F0.3978877922179079
sg6
F3.2819626660883086
ss(I18
I6
I01
I00
tp127
(dp128
g3
F-0.04402423119898602
sg4
F8.665685659193526
sg5
F-0.37426625460791035
sg6
I0
ss(I12
I2
I00
I00
tp129
(dp130
g3
F-0.24062242246153187
sg4
F0.9229034372402538
sg5
F-0.7003387386055437
sg6
I0
ss(I18
I1
I00
I00
tp131
(dp132
g3
F-2.2502441873170276
sg4
F-0.18522425801927878
sg5
F0.12557667256805827
sg6
I0
ss(I17
I8
I01
I00
tp133
(dp134
g3
F-0.33850063823881327
sg4
F0.5739158854997247
sg5
F-0.5236027633055806
sg6
I0
ss(I16
I8
I00
I01
tp135
(dp136
g3
F-1.978699401029323
sg4
F-0.7015417283029997
sg5
F-0.1106704048324075
sg6
F2.174235970880707
ss(I4
I8
I00
I01
tp137
(dp138
g3
F-0.16252507558654494
sg4
F0.23024504756756498
sg5
F0.004009848629467738
sg6
F4.60246314390152
ss(I16
I1
I00
I01
tp139
(dp140
g3
F-0.6506738701768952
sg4
F-0.1075081438288035
sg5
F-0.41785313507670563
sg6
F0.06675246905550145
ss(I19
I10
I01
I00
tp141
(dp142
g3
F-0.42527738693550365
sg4
F0.4525395701233575
sg5
F-0.349705122725655
sg6
I0
ss(I6
I7
I00
I00
tp143
(dp144
g3
F-0.5010978614615457
sg4
F0.5956660723603232
sg5
F0.0833797667144548
sg6
I0
ss(I19
I5
I00
I00
tp145
(dp146
g3
F-1.5327708464379455
sg4
F0.03262306129182224
sg5
F3.44767385165771
sg6
I0
ss(I20
I6
I01
I00
tp147
(dp148
g3
F3.6953632452194562
sg4
F4.232577319402853
sg5
F7.862232860610226
sg6
I0
ss(I14
I10
I01
I00
tp149
(dp150
g3
F-0.307358544340387
sg4
F1.5779615766802613
sg5
F-0.043291487129583583
sg6
I0
ss(I13
I3
I00
I00
tp151
(dp152
g3
F-0.15543819097855105
sg4
F3.390501263809474
sg5
F-0.3697925746878228
sg6
I0
ss(I18
I4
I00
I01
tp153
(dp154
g3
F-1.9375
sg4
F-0.9375
sg5
F0.5718277154199689
sg6
F4.45147822040887
ss(I4
I3
I00
I01
tp155
(dp156
g3
F-0.04461241365830548
sg4
F0.27238444851377264
sg5
F1.0713233212874984
sg6
F0.38453361153035903
ss(I9
I6
I00
I00
tp157
(dp158
g3
F-0.26270898401000087
sg4
F1.1882941915556602
sg5
F0.2065157135887859
sg6
I0
ss(I16
I1
I00
I00
tp159
(dp160
g3
F-0.06751744104399005
sg4
F-0.6380538173235746
sg5
F-0.37394817089117915
sg6
I0
ss(I14
I3
I00
I00
tp161
(dp162
g3
F-1.3465344193514954
sg4
F-0.3667882689194485
sg5
F-0.8366887575422325
sg6
I0
ss(I13
I10
I01
I00
tp163
(dp164
g3
F-0.20004328933038673
sg4
F0.43835178356785076
sg5
F-0.031968406456635456
sg6
I0
ss(I16
I3
I01
I00
tp165
(dp166
g3
F-0.11152014693871393
sg4
F1.0029845844531546
sg5
F0.030127642976413682
sg6
I0
ss(I6
I2
I00
I01
tp167
(dp168
g3
F-0.9123239136889358
sg4
F0.24820594757658493
sg5
F-0.007441303766587415
sg6
F0.7627763401623648
ss(I17
I9
I01
I00
tp169
(dp170
g3
F-0.9733918155763974
sg4
F0.5135113222109844
sg5
F-0.1521997764287057
sg6
I0
ss(I15
I3
I00
I00
tp171
(dp172
g3
F-0.10049485035957295
sg4
F-0.830790484987483
sg5
F0.1443063414658982
sg6
I0
ss(I17
I2
I00
I00
tp173
(dp174
g3
F-0.1563820300681542
sg4
F-0.9924575433216308
sg5
F1.213457321446676
sg6
I0
ss(I15
I8
I01
I00
tp175
(dp176
g3
F-0.6699388679729343
sg4
F1.054435211024352
sg5
F-0.0399703217275835
sg6
I0
ss(I11
I6
I00
I00
tp177
(dp178
g3
F0.04616344650423043
sg4
F1.2731882003169985
sg5
F-0.31296832154021403
sg6
I0
ss(I20
I9
I00
I01
tp179
(dp180
g3
F-1.99755859375
sg4
F0.0
sg5
F7.972920138033304
sg6
F0.7643869551615794
ss(I6
I9
I00
I01
tp181
(dp182
g3
F-0.4292683782495049
sg4
F0.10311353609273792
sg5
F-0.017171327658154795
sg6
F0.5260406162824546
ss(I11
I8
I00
I00
tp183
(dp184
g3
F-0.021304411365533515
sg4
F0.8432396032527513
sg5
F-0.02632476398644909
sg6
I0
ss(I14
I7
I00
I01
tp185
(dp186
g3
F-1.75
sg4
F-0.75
sg5
F-0.26565501461169294
sg6
F1.0332433665015237
ss(I19
I2
I00
I00
tp187
(dp188
g3
F-2.002465494335845
sg4
F-0.18988020712629927
sg5
F5.307375927466888
sg6
I0
ss(I18
I9
I01
I00
tp189
(dp190
g3
F-2.925621599398754
sg4
F3.3919954633593115
sg5
F-0.7298015368257038
sg6
I0
ss(I6
I6
I00
I00
tp191
(dp192
g3
F-0.5237572843818923
sg4
F1.7971052257508688
sg5
F0.11409238935699112
sg6
I0
ss(I13
I4
I00
I00
tp193
(dp194
g3
F0.3510562810616049
sg4
F-0.2407178387698371
sg5
F1.8697205251636313
sg6
I0
ss(I9
I7
I00
I00
tp195
(dp196
g3
F-0.8641454126265781
sg4
F4.223229813048742
sg5
F-0.2648898541845094
sg6
I0
ss(I21
I1
I01
I00
tp197
(dp198
g3
I0
sg4
I0
sg5
F14.055907954734254
sg6
I0
ss(I8
I8
I00
I01
tp199
(dp200
g3
F-0.7262919055492958
sg4
I0
sg5
F-0.1853214045969139
sg6
F1.773396751844701
ss(I14
I2
I00
I00
tp201
(dp202
g3
F-1.2042786839664197
sg4
F2.238731872938813
sg5
F-0.9764513018456376
sg6
I0
ss(I14
I5
I01
I00
tp203
(dp204
g3
F-0.15222950397289592
sg4
F2.9819540088686436
sg5
F-0.03744240742755872
sg6
I0
ss(I16
I4
I01
I00
tp205
(dp206
g3
F-0.42670105477400067
sg4
F0.7398909448920257
sg5
F0.15501937567684115
sg6
I0
ss(I17
I3
I00
I00
tp207
(dp208
g3
F-1.876232002096034
sg4
F-0.6551747178462588
sg5
F-0.2533533668378204
sg6
I0
ss(I17
I4
I01
I00
tp209
(dp210
g3
F-0.93852589502778
sg4
F2.6640165625083574
sg5
F-0.06840886665844936
sg6
I0
ss(I16
I4
I00
I01
tp211
(dp212
g3
F-1.90625
sg4
F0.19088860064553026
sg5
F0.014293202248573167
sg6
F1.7618834443617448
ss(I18
I8
I01
I00
tp213
(dp214
g3
F-0.7829232795826785
sg4
F4.574644205911868
sg5
F-0.5277872442838175
sg6
I0
ss(I18
I3
I00
I00
tp215
(dp216
g3
F-0.787999515428258
sg4
F-0.6946571273979772
sg5
F1.9406280638433653
sg6
I0
ss(I17
I10
I01
I00
tp217
(dp218
g3
F-0.5436686979301215
sg4
F2.533236396509678
sg5
F-0.2808688266539654
sg6
I0
ss(I5
I1
I00
I00
tp219
(dp220
g3
F-1.7565756748350319
sg4
F1.7109736438538674
sg5
F-0.29943576839398267
sg6
I0
ss(I10
I2
I00
I01
tp221
(dp222
g3
F-0.4361453439299732
sg4
F3.701346285255763
sg5
F-0.006924385501199393
sg6
F0.0
ss(I16
I3
I00
I01
tp223
(dp224
g3
F0.033172879414664624
sg4
F-0.75
sg5
F0.3778792544593168
sg6
F2.5443163698353666
ss(I20
I10
I01
I00
tp225
(dp226
g3
F-0.4465877309501016
sg4
F0.21788732536414854
sg5
F1.9849790867926385
sg6
I0
ss(I19
I3
I00
I00
tp227
(dp228
g3
F-0.7304837455517137
sg4
F-0.0006224635085169128
sg5
F1.3312314067049762
sg6
I0
ss(I12
I9
I00
I00
tp229
(dp230
g3
F-0.38691731605407476
sg4
F1.4535563907367293
sg5
F-0.0642631684264979
sg6
I0
ss(I19
I8
I01
I00
tp231
(dp232
g3
F1.2536337595881388
sg4
F2.2635400187569656
sg5
F4.100382564757159
sg6
I0
ss(I6
I1
I00
I00
tp233
(dp234
g3
F-2.4546885255589164
sg4
F0.31614762724691625
sg5
F-0.4932629949929304
sg6
I0
ss(I20
I4
I01
I00
tp235
(dp236
g3
F4.09728988552291
sg4
F0.5753204360666584
sg5
F5.327641200482222
sg6
I0
ss(I14
I4
I01
I00
tp237
(dp238
g3
F-0.19079294800274166
sg4
F1.5126611288169824
sg5
F-0.39715350684250655
sg6
I0
ss(I13
I5
I00
I00
tp239
(dp240
g3
F-1.6206400683099407
sg4
F3.8993833247554845
sg5
F-0.8410701469704771
sg6
I0
ss(I18
I6
I00
I01
tp241
(dp242
g3
F-1.1891739756213253
sg4
F-0.25
sg5
F1.6396874368573313
sg6
F0.48360470994179183
ss(I4
I1
I00
I01
tp243
(dp244
g3
F-1.4244650344959051
sg4
F0.08548062126037667
sg5
F-0.6136022968136342
sg6
F0.03713368625203699
ss(I12
I2
I00
I01
tp245
(dp246
g3
F0.49757208569122047
sg4
F-0.05341667316815035
sg5
F0.3718994713575772
sg6
F7.886046535213018
ss(I14
I10
I00
I01
tp247
(dp248
g3
F-1.5152663818898264
sg4
F-0.3815914549453543
sg5
F-0.6141124532572144
sg6
F0.17070529588185637
ss(I17
I5
I01
I00
tp249
(dp250
g3
F-0.1646053211306594
sg4
F0.6069553920114832
sg5
F-0.11148343652458104
sg6
I0
ss(I16
I10
I00
I00
tp251
(dp252
g3
F-1.908879815175232
sg4
F-0.5868162828185616
sg5
F-0.1842016052759735
sg6
I0
ss(I16
I1
I01
I00
tp253
(dp254
g3
F-0.8679085623520216
sg4
F1.8445612285785498
sg5
F-0.2156670518819655
sg6
I0
ss(I12
I5
I00
I01
tp255
(dp256
g3
F0.06884658075919958
sg4
F-0.006443282665814232
sg5
F0.20539202613627633
sg6
F4.122667648276657
ss(I20
I6
I00
I01
tp257
(dp258
g3
F-1.9998779296875
sg4
F-0.6552734375
sg5
F7.5403605215184015
sg6
F3.9250010971516835
ss(I6
I5
I00
I01
tp259
(dp260
g3
F-0.6142145525904696
sg4
F2.6028528112532743
sg5
F0.1277439518507525
sg6
I0
ss(I11
I4
I00
I00
tp261
(dp262
g3
F-0.8744906780186684
sg4
F2.3923476962948933
sg5
F-0.4993358759206638
sg6
I0
ss(I7
I9
I00
I00
tp263
(dp264
g3
F-0.783914677684726
sg4
F0.13321072246928223
sg5
F-0.17580845434173867
sg6
I0
ss(I13
I2
I01
I00
tp265
(dp266
g3
F-0.15152620608450207
sg4
F5.178784175585437
sg5
F0.1486939569722232
sg6
I0
ss(I19
I9
I01
I00
tp267
(dp268
g3
F0.5743559438605481
sg4
F0.6207184363253683
sg5
F2.5414842299223275
sg6
I0
ss(I18
I2
I00
I00
tp269
(dp270
g3
F-1.9757849717462723
sg4
F-0.9997424853634016
sg5
F1.2574473672653976
sg6
I0
ss(I15
I3
I01
I00
tp271
(dp272
g3
F-0.7122085982524932
sg4
F2.8214810669388664
sg5
F-0.059646487599456816
sg6
I0
ss(I5
I2
I00
I00
tp273
(dp274
g3
F-1.3301303850773492
sg4
F2.263167436303521
sg5
F-0.14952366344758178
sg6
I0
ss(I12
I6
I00
I00
tp275
(dp276
g3
F5.8066100700203265
sg4
F-0.063648687212432
sg5
F-0.8565008225735378
sg6
I0
ss(I4
I6
I00
I01
tp277
(dp278
g3
F-0.008804823930569583
sg4
F0.48505608697629
sg5
F0.8485795820004144
sg6
F1.7938324214485006
ss(I14
I1
I00
I01
tp279
(dp280
g3
F-1.25
sg4
F-0.46885241652197124
sg5
F-0.6766478832755829
sg6
F0.07722501529752665
ss(I12
I8
I00
I00
tp281
(dp282
g3
F-1.9577167511962927
sg4
F3.406307886964956
sg5
F-0.7342025865322458
sg6
I0
ss(I20
I2
I00
I00
tp283
(dp284
g3
F-2.0000109634711265
sg4
F-0.9374389646036437
sg5
F8.015220699714265
sg6
I0
ss(I13
I6
I00
I00
tp285
(dp286
g3
F-0.36353864431096145
sg4
F-0.0008575996876473979
sg5
F3.5120543363174157
sg6
I0
ss(I20
I9
I01
I00
tp287
(dp288
g3
F1.1553405102653906
sg4
F3.098722461673302
sg5
F7.6627152961894005
sg6
I0
ss(I16
I7
I00
I00
tp289
(dp290
g3
F-0.8797338746530066
sg4
F-0.3580418746477334
sg5
F-0.7236225644258671
sg6
I0
ss(I9
I1
I00
I00
tp291
(dp292
g3
F-1.9275874643520865
sg4
F0.15342153420186894
sg5
F-0.9211528972107463
sg6
I0
ss(I21
I3
I01
I00
tp293
(dp294
g3
I0
sg4
I0
sg5
F15.244834799930572
sg6
I0
ss(I8
I6
I00
I01
tp295
(dp296
g3
F0.20423780699637872
sg4
F3.056081681290185
sg5
F0.40763772911069956
sg6
F0.752769078166912
ss(I16
I9
I00
I00
tp297
(dp298
g3
F-1.2211720569580673
sg4
F-0.3082894209702083
sg5
F-0.380565166448443
sg6
I0
ss(I14
I7
I01
I00
tp299
(dp300
g3
F-2.0902505167297907
sg4
F6.634848059338475
sg5
F-0.05995455547565559
sg6
I0
ss(I10
I1
I00
I00
tp301
(dp302
g3
F-1.7444969520400062
sg4
F1.020214516359937
sg5
F-0.7472623953572665
sg6
I0
ss(I15
I6
I00
I00
tp303
(dp304
g3
F-1.1420864009856853
sg4
F-0.2978815597898952
sg5
F1.8764001576889457
sg6
I0
ss(I8
I1
I00
I01
tp305
(dp306
g3
F-1.565094709446803
sg4
F0.0021131144239302886
sg5
F-1.146762144033152
sg6
F0.6104354139138822
ss(I16
I2
I00
I01
tp307
(dp308
g3
F-1.1502723649357418
sg4
F-0.8853298828125
sg5
F0.037869337247487755
sg6
F3.019287624975119
ss(I18
I10
I01
I00
tp309
(dp310
g3
F-0.4247917512731938
sg4
F0.37229079175267554
sg5
F-0.08081731982016277
sg6
I0
ss(I19
I9
I00
I00
tp311
(dp312
g3
F0.39914824093334067
sg4
F-1.4778619392957761
sg5
F1.720955985537358
sg6
I0
ss(I18
I5
I00
I00
tp313
(dp314
g3
F-1.9973519643156612
sg4
F-0.9686740527764008
sg5
F3.732864502087239
sg6
I0
ss(I5
I3
I00
I00
tp315
(dp316
g3
F-0.31756780020781916
sg4
F1.402152193841363
sg5
F-0.19724413887862463
sg6
I0
ss(I10
I4
I00
I01
tp317
(dp318
g3
F0.5004337770232027
sg4
F2.0717621505493393
sg5
F0.10782474607821291
sg6
F0.0
ss(I8
I10
I00
I00
tp319
(dp320
g3
F-1.738723879991664
sg4
F0.12405836487064627
sg5
F-0.6954787104171265
sg6
I0
ss(I20
I8
I01
I00
tp321
(dp322
g3
F1.9543456598645945
sg4
F7.018520547611961
sg5
F8.417840251588991
sg6
I0
ss(I19
I1
I00
I00
tp323
(dp324
g3
F-2.0694223710377733
sg4
F-0.8561222613555988
sg5
F-0.3600977509098209
sg6
I0
ss(I19
I6
I01
I00
tp325
(dp326
g3
F0.1884853746925783
sg4
F0.6699824070396545
sg5
F4.641065721835458
sg6
I0
ss(I6
I3
I00
I00
tp327
(dp328
g3
F-0.5482532903708697
sg4
F0.9984031114157522
sg5
F-0.37532336372376685
sg6
I0
ss(I14
I8
I00
I01
tp329
(dp330
g3
F-1.6810463947570962
sg4
F-0.5
sg5
F-0.12454469427127945
sg6
F1.0685015926358652
ss(I14
I6
I01
I00
tp331
(dp332
g3
F0.32925388880530515
sg4
F1.2340622668608061
sg5
F0.3799623064624417
sg6
I0
ss(I13
I7
I00
I00
tp333
(dp334
g3
F-0.212830094741288
sg4
F-0.32667544565467
sg5
F-0.7012756190591001
sg6
I0
ss(I18
I8
I00
I01
tp335
(dp336
g3
F1.3278439402293265
sg4
F0.11337003555453329
sg5
F1.425225363657275
sg6
F1.4569388740614835
ss(I4
I7
I00
I01
tp337
(dp338
g3
F-0.24304777902187258
sg4
F0.4991675835899575
sg5
F0.30057636717990177
sg6
F1.237694128641287
ss(I9
I2
I00
I00
tp339
(dp340
g3
F-0.15734962271938646
sg4
F3.219758384802095
sg5
F-0.10677211622265848
sg6
I0
ss(I10
I9
I00
I01
tp341
(dp342
g3
F-0.6584917977923268
sg4
F4.417812005557135
sg5
F0.7412574154135358
sg6
F0.0
ss(I18
I1
I00
I01
tp343
(dp344
g3
F-0.6823403619924499
sg4
F-0.7258049705639633
sg5
F-0.40454665230917075
sg6
F0.04822442233972225
ss(I17
I7
I01
I00
tp345
(dp346
g3
F-0.277293454773872
sg4
F1.608881336529279
sg5
F0.1681476900978215
sg6
I0
ss(I16
I8
I00
I00
tp347
(dp348
g3
F-1.1874586926361206
sg4
F2.4283966788221147
sg5
F-0.5056231546068957
sg6
I0
ss(I20
I10
I00
I01
tp349
(dp350
g3
F-1.9921111911532985
sg4
F0.5322878360749428
sg5
F5.102135118866466
sg6
F1.7347240588390542
ss(I21
I4
I01
I00
tp351
(dp352
g3
I0
sg4
I0
sg5
F15.305719742575992
sg6
I0
ss(I20
I4
I00
I01
tp353
(dp354
g3
F-0.8749923706054688
sg4
F-0.9375
sg5
F6.773078848655712
sg6
F1.9645204496262683
ss(I6
I7
I00
I01
tp355
(dp356
g3
F0.017509592986280298
sg4
F2.3283095100232467
sg5
F0.3533658815300139
sg6
F0.4318688283062364
ss(I11
I2
I00
I00
tp357
(dp358
g3
F-0.8933293258258748
sg4
F2.1494453903172337
sg5
F-0.16313156200520185
sg6
I0
ss(I19
I7
I01
I00
tp359
(dp360
g3
F4.86583687107662
sg4
F3.850907231017125
sg5
F7.017865926290595
sg6
I0
ss(I18
I4
I00
I00
tp361
(dp362
g3
F-0.28775988632556704
sg4
F-0.6105266484648386
sg5
F1.4052196053438977
sg6
I0
ss(I16
I5
I01
I00
tp363
(dp364
g3
F-0.6396335188596353
sg4
F1.8532518371955924
sg5
F-0.21839588845492547
sg6
I0
ss(I5
I4
I00
I00
tp365
(dp366
g3
F-0.7008561648232864
sg4
F1.0437069949627258
sg5
F0.08692906613459661
sg6
I0
ss(I8
I9
I00
I00
tp367
(dp368
g3
F-0.16027681929830973
sg4
F0.44404404811489967
sg5
F-0.3318606584731322
sg6
I0
ss(I14
I3
I00
I01
tp369
(dp370
g3
F-0.3720862078008871
sg4
F-0.31825719695284727
sg5
F1.8641737103659173
sg6
F0.22651806900026009
ss(I13
I1
I01
I00
tp371
(dp372
g3
F-1.2052566176291486
sg4
F0.7392619390452428
sg5
F-0.763038113907246
sg6
I0
ss(I16
I4
I00
I00
tp373
(dp374
g3
F-1.3530605368424176
sg4
F-0.9165295294725166
sg5
F0.6652391456391239
sg6
I0
ss(I6
I2
I00
I00
tp375
(dp376
g3
F-1.1833953166448237
sg4
F2.1937490157543698
sg5
F-0.39468231406402976
sg6
I0
ss(I13
I8
I00
I00
tp377
(dp378
g3
F-1.4064592351334362
sg4
F-0.12572063905881886
sg5
F-0.7452598854195176
sg6
I0
ss(I14
I8
I00
I00
tp379
(dp380
g3
F0.16089761503308542
sg4
F2.7774429781472185
sg5
F-0.8867902484736969
sg6
I0
ss(I16
I5
I00
I00
tp381
(dp382
g3
F-0.5368968797064679
sg4
F-0.17719905700575012
sg5
F-0.5211109294721197
sg6
I0
ss(I9
I3
I00
I00
tp383
(dp384
g3
F0.07912406865405941
sg4
F1.8291407906597343
sg5
F-0.25310197376997934
sg6
I0
ss(I21
I5
I01
I00
tp385
(dp386
g3
I0
sg4
I0
sg5
F14.990504605970683
sg6
I0
ss(I8
I4
I00
I01
tp387
(dp388
g3
F0.07043748229986602
sg4
F0.0
sg5
F-0.21865853439319924
sg6
F1.4119050627787586
ss(I15
I10
I00
I00
tp389
(dp390
g3
F-0.9711758468967044
sg4
F-0.34089034278008745
sg5
F0.9790046339957985
sg6
I0
ss(I14
I1
I01
I00
tp391
(dp392
g3
F-2.6888235299555836
sg4
F0.22860356461577502
sg5
F-0.30505547697864793
sg6
I0
ss(I10
I3
I00
I00
tp393
(dp394
g3
F-0.6125076228130673
sg4
F0.9241128738447022
sg5
F0.10240843841065334
sg6
I0
ss(I7
I3
I00
I00
tp395
(dp396
g3
F-1.1361880941306235
sg4
F0.4225127732158328
sg5
F-0.04641241289585826
sg6
I0
ss(I15
I4
I00
I00
tp397
(dp398
g3
F-0.5372243674997836
sg4
F-0.9255785438180962
sg5
F-0.6000682395280381
sg6
I0
ss(I7
I1
I00
I00
tp399
(dp400
g3
F-0.98588953052541
sg4
F0.012113229323267184
sg5
F-0.7956836999223758
sg6
I0
ss(I11
I3
I00
I00
tp401
(dp402
g3
F-0.4131515145118809
sg4
F0.9076435535826067
sg5
F-0.2149911424201931
sg6
I0
ss(I10
I8
I00
I01
tp403
(dp404
g3
F-0.26695963399881995
sg4
F0.34184216110811083
sg5
F0.5163324218068351
sg6
F0.3524561059530473
ss(I18
I7
I00
I00
tp405
(dp406
g3
F0.10584784187517471
sg4
F-0.22838544118061033
sg5
F4.978040244724507
sg6
I0
ss(I12
I3
I00
I00
tp407
(dp408
g3
F-1.871695875433441
sg4
F0.4719544764005606
sg5
F-0.5889384324944321
sg6
I0
ss(I5
I5
I00
I00
tp409
(dp410
g3
F-0.346037455490227
sg4
F1.6643000327702702
sg5
F-0.18415786270001422
sg6
I0
ss(I10
I6
I00
I01
tp411
(dp412
g3
I0
sg4
F2.659049516878741
sg5
F0.2525928931288567
sg6
F0.23272928614612579
ss(I8
I8
I00
I00
tp413
(dp414
g3
F-0.21734357863381487
sg4
F1.6348044441639467
sg5
F-0.21619380204187075
sg6
I0
ss(I4
I2
I00
I01
tp415
(dp416
g3
F-0.16802284956296898
sg4
F1.9387366001055162
sg5
F0.00279570364049031
sg6
F0.1592834203208492
ss(I19
I4
I01
I00
tp417
(dp418
g3
F0.2566286482687956
sg4
F1.2541827306423552
sg5
F2.321168856532587
sg6
I0
ss(I13
I4
I01
I00
tp419
(dp420
g3
F0.09521061124342933
sg4
F1.625635682605208
sg5
F0.27869647696900607
sg6
I0
ss(I15
I7
I00
I00
tp421
(dp422
g3
F-0.561162631977358
sg4
F-0.9736191644916805
sg5
F-1.0053954634110176
sg6
I0
ss(I7
I2
I00
I00
tp423
(dp424
g3
F-0.7667513705573598
sg4
F1.991425775379763
sg5
F-0.07493639822934683
sg6
I0
ss(I18
I10
I00
I01
tp425
(dp426
g3
F-5.240234375
sg4
F-0.6630935016996753
sg5
F-0.036779095465469314
sg6
F0.3934947014961029
ss(I12
I10
I00
I00
tp427
(dp428
g3
F-0.9150517129780104
sg4
F-0.23222218128097938
sg5
F-0.8377422829965434
sg6
I0
ss(I12
I6
I00
I01
tp429
(dp430
g3
F0.47953865844265986
sg4
F1.1568618703745848
sg5
F1.0349223309278104
sg6
F2.538032834408474
ss(I11
I7
I00
I00
tp431
(dp432
g3
F-0.5869884415724479
sg4
F1.1522312796272187
sg5
F0.13062913180370211
sg6
I0
ss(I7
I5
I00
I00
tp433
(dp434
g3
F-0.40517878115096945
sg4
F2.1097074178846347
sg5
F-0.023909703538494087
sg6
I0
ss(I17
I1
I01
I00
tp435
(dp436
g3
F-0.12051858804925619
sg4
F0.6461221975220832
sg5
F-0.6932061829916071
sg6
I0
ss(I21
I8
I01
I00
tp437
(dp438
g3
I0
sg4
I0
sg5
F15.028960066795506
sg6
I0
ss(I20
I8
I00
I01
tp439
(dp440
g3
F-1.999755859375
sg4
F0.000244140625
sg5
F7.212974883057612
sg6
F4.333046039405184
ss(I10
I2
I00
I00
tp441
(dp442
g3
F-0.4661934057990911
sg4
F6.735282504350411
sg5
F-0.6179807182741275
sg6
I0
ss(I6
I8
I00
I01
tp443
(dp444
g3
F-0.9584395454051777
sg4
F2.1443942897164394
sg5
F-0.025000000000000022
sg6
I0
ss(I12
I9
I00
I01
tp445
(dp446
g3
F-2.878383407868201
sg4
F0.2831918028406132
sg5
F0.38750324251612606
sg6
F1.4425173748397722
ss(I17
I8
I00
I00
tp447
(dp448
g3
F-0.8136394311804194
sg4
F-0.9948875290239273
sg5
F-0.36953688424766257
sg6
I0
ss(I6
I1
I00
I01
tp449
(dp450
g3
F-2.0380645160871556
sg4
F0.05804080563780968
sg5
F-0.34413246352793825
sg6
F0.0041197973487019845
ss(I14
I6
I00
I01
tp451
(dp452
g3
F0.06421939451968028
sg4
I0
sg5
F-0.21696606126350326
sg6
F0.7712581685016646
ss(I16
I7
I01
I00
tp453
(dp454
g3
F0.12805664290489882
sg4
F1.7809040837060317
sg5
F-0.5771597905163899
sg6
I0
ss(I5
I8
I00
I00
tp455
(dp456
g3
F-2.1438872773709385
sg4
F1.1328731259082627
sg5
F-0.2937703388475843
sg6
I0
ss(I20
I3
I00
I01
tp457
(dp458
g3
F-1.999969482421875
sg4
F-0.983642578125
sg5
F5.4623720410617285
sg6
F2.933037050018142
ss(I19
I5
I01
I00
tp459
(dp460
g3
F2.510284150606077
sg4
F2.407867122163804
sg5
F5.4075314651896935
sg6
I0
ss(I18
I6
I00
I00
tp461
(dp462
g3
F-0.598153485019423
sg4
F-0.6250283414766253
sg5
F4.815719828351701
sg6
I0
ss(I19
I10
I00
I00
tp463
(dp464
g3
F-0.8638249722239199
sg4
F-1.0232677605431868
sg5
F-0.4387362621197658
sg6
I0
ss(I18
I1
I01
I00
tp465
(dp466
g3
F-1.1738234085598296
sg4
F0.057444301668591005
sg5
F-0.47008068507534756
sg6
I0
ss(I5
I6
I00
I00
tp467
(dp468
g3
F-0.29455216486325775
sg4
F0.9540804430885519
sg5
F0.1760990988552189
sg6
I0
ss(I19
I2
I01
I00
tp469
(dp470
g3
F0.42275751093262137
sg4
F3.1266439708245946
sg5
F0.05883551279422228
sg6
I0
ss(I8
I7
I00
I00
tp471
(dp472
g3
F-0.37876599303467556
sg4
F0.6875143398482888
sg5
F-0.051780717611804555
sg6
I0
ss(I13
I3
I01
I00
tp473
(dp474
g3
F2.46545743640149
sg4
F0.09802859072274886
sg5
F-0.3570588247511949
sg6
I0
ss(I18
I7
I00
I01
tp475
(dp476
g3
F-0.3815630026624648
sg4
F-0.875
sg5
F0.7898189298225247
sg6
F4.874425955959218
ss(I21
I9
I01
I00
tp477
(dp478
g3
I0
sg4
I0
sg5
F15.005398582069315
sg6
I0
ss(I20
I6
I00
I00
tp479
(dp480
g3
F-1.9920463561720414
sg4
F-0.48828124999999645
sg5
F5.32296092222882
sg6
I0
ss(I13
I10
I00
I00
tp481
(dp482
g3
F-1.2303302615087008
sg4
F-0.6517133153413002
sg5
F-0.9455917373763612
sg6
I0
ss(I14
I10
I00
I00
tp483
(dp484
g3
F-0.4410996166196292
sg4
F-0.7136789747195991
sg5
F0.09368895426386203
sg6
I0
ss(I7
I6
I00
I00
tp485
(dp486
g3
F-0.5668792592068947
sg4
F1.1435663878616424
sg5
F-0.26299184144905824
sg6
I0
ss(I21
I7
I01
I00
tp487
(dp488
g3
I0
sg4
I0
sg5
F14.97470637951891
sg6
I0
ss(I8
I2
I00
I01
tp489
(dp490
g3
F-0.5735394354454222
sg4
F0.913390089291048
sg5
F-0.2954690696342914
sg6
F0.5006386420173768
ss(I16
I2
I01
I00
tp491
(dp492
g3
F-0.21461907063472374
sg4
F0.7086965696619825
sg5
F-0.03132830328782041
sg6
I0
ss(I15
I8
I00
I00
tp493
(dp494
g3
F-0.3292606920899457
sg4
F0.9533633487183313
sg5
F-0.4978252630672304
sg6
I0
ss(I14
I3
I01
I00
tp495
(dp496
g3
F0.4234990682073827
sg4
F2.6165429627976433
sg5
F-0.005153426232955727
sg6
I0
ss(I10
I5
I00
I00
tp497
(dp498
g3
F-0.36964160158179504
sg4
F3.2173307962878503
sg5
F0.24398991917101792
sg6
I0
ss(I15
I1
I00
I00
tp499
(dp500
g3
F-2.447806281332882
sg4
F-0.7651444085433643
sg5
F-1.0000305171090078
sg6
I0
ss(I17
I9
I00
I00
tp501
(dp502
g3
F-1.1718800981098454
sg4
F-0.9384597198870952
sg5
F1.4359382832860408
sg6
I0
ss(I17
I2
I01
I00
tp503
(dp504
g3
F-0.34411893005472405
sg4
F1.4831089097464352
sg5
F-0.08481690932648214
sg6
I0
ss(I18
I8
I00
I00
tp505
(dp506
g3
F-0.8534035612314681
sg4
F-0.28957455329874604
sg5
F1.2554017385922365
sg6
I0
ss(I5
I9
I00
I00
tp507
(dp508
g3
F-0.05207480970904721
sg4
F1.5470448732871152
sg5
F-0.3579887018199132
sg6
I0
ss(I10
I10
I00
I01
tp509
(dp510
g3
F-0.8730342139181855
sg4
F0.822421600187438
sg5
F-0.17658545129023417
sg6
F0.024925055110135673
ss(I16
I3
I00
I00
tp511
(dp512
g3
F-1.9542595009233623
sg4
F1.5213929196667981
sg5
F-0.3030107054494702
sg6
I0
ss(I18
I9
I00
I00
tp513
(dp514
g3
F0.09115981424395825
sg4
F-0.9860364097744538
sg5
F1.0039601368774003
sg6
I0
ss(I16
I7
I00
I01
tp515
(dp516
g3
F-1.5
sg4
F-0.875
sg5
F0.07534877551670571
sg6
F0.4668367982759131
ss(I12
I1
I00
I00
tp517
(dp518
g3
F-1.4259910244384857
sg4
F-0.017087458144115678
sg5
F-0.009041410558651819
sg6
I0
ss(I5
I7
I00
I00
tp519
(dp520
g3
F-1.0690739029176966
sg4
F1.7716398000514597
sg5
F-0.2056724491907545
sg6
I0
ss(I8
I6
I00
I00
tp521
(dp522
g3
F-0.5794793841074919
sg4
F5.451720333840292
sg5
F0.04947375272806637
sg6
I0
ss(I11
I5
I00
I00
tp523
(dp524
g3
F-0.712243091895906
sg4
F2.9256687318990773
sg5
F-0.01412938751498033
sg6
I0
ss(I16
I9
I00
I01
tp525
(dp526
g3
F-1.450762636722992
sg4
F-0.16174253276388145
sg5
F-0.7520228295459235
sg6
F1.0194526509317683
ss(I10
I1
I00
I01
tp527
(dp528
g3
F-0.6334851753298246
sg4
F0.012361981673062773
sg5
F-0.07784539243569566
sg6
F0.012849167243637912
ss(I4
I9
I00
I01
tp529
(dp530
g3
F-1.2466010483402712
sg4
F0.5588668583950129
sg5
F0.18644904109542232
sg6
F1.1036293815432743
ss(I9
I8
I00
I00
tp531
(dp532
g3
F-0.6186125669600857
sg4
F0.7465054167441789
sg5
F0.01269798251934745
sg6
I0
ss(I14
I2
I01
I00
tp533
(dp534
g3
F-0.2868449095292771
sg4
F5.336064422195733
sg5
F-0.21866369955867448
sg6
I0
ss(I11
I1
I00
I00
tp535
(dp536
g3
F-1.6378118655750906
sg4
F-0.027619540409221217
sg5
F-0.3778389327897691
sg6
I0
ss(I14
I5
I00
I00
tp537
(dp538
g3
F-0.553196606392369
sg4
F3.17322412477915
sg5
F-0.9138174278144723
sg6
I0
ss(I7
I7
I00
I00
tp539
(dp540
g3
F-1.8315435706870518
sg4
F2.9293659062304105
sg5
F-0.09327689514644268
sg6
I0
ss(I12
I4
I00
I01
tp541
(dp542
g3
F0.06642495005792726
sg4
F0.32193480451354495
sg5
F0.1332166629383999
sg6
F1.1292082438549669
ss(I17
I6
I01
I00
tp543
(dp544
g3
F0.03624865416455392
sg4
F2.1399150350560823
sg5
F0.12318828160825046
sg6
I0
ss(I18
I7
I01
I00
tp545
(dp546
g3
F2.254908738984588
sg4
F1.4387116811078766
sg5
F3.9766164781582445
sg6
I0
ss(I15
I9
I01
I00
tp547
(dp548
g3
F-0.4263398851390432
sg4
F0.43485393505422176
sg5
F-0.16678923242264765
sg6
I0
ss(I17
I3
I01
I00
tp549
(dp550
g3
F-0.7238339666780791
sg4
F0.41887569818778364
sg5
F-0.7662911562098945
sg6
I0
ss(I15
I9
I00
I00
tp551
(dp552
g3
F-0.48195868297116684
sg4
F-0.40669444836368307
sg5
F-0.03399852701132189
sg6
I0
ss(I17
I4
I00
I00
tp553
(dp554
g3
F0.4542322332789607
sg4
F-0.9218143161375083
sg5
F-0.7768937699788423
sg6
I0
ss(I10
I4
I00
I00
tp555
(dp556
g3
F-0.2948570939493034
sg4
F3.0151573965498777
sg5
F0.12989342190685843
sg6
I0
ss(I6
I10
I00
I01
tp557
(dp558
g3
F-0.6368429022992903
sg4
F0.11466819760805794
sg5
F-0.33372477463954
sg6
F0.2787631219380469
ss(I20
I5
I01
I00
tp559
(dp560
g3
F1.283223689587678
sg4
F1.587012002826258
sg5
F6.954497035258413
sg6
I0
ss(I17
I10
I00
I00
tp561
(dp562
g3
F1.0065340815744401
sg4
F-0.9584582944981932
sg5
F-1.7817096525589045
sg6
I0
ss(I6
I3
I00
I01
tp563
(dp564
g3
F0.24920194203918156
sg4
F0.13448639495231188
sg5
F0.015061688079418545
sg6
F0.9555046167385858
ss(I6
I4
I00
I01
tp565
(dp566
g3
F-0.5002395098191506
sg4
F0.29785658541699256
sg5
F0.16889806447852113
sg6
F2.6414663193141834
ss(I5
I10
I00
I00
tp567
(dp568
g3
F-0.7507172425483897
sg4
F3.649536432390723
sg5
F-0.6146748828580098
sg6
I0
ss(I20
I1
I00
I01
tp569
(dp570
g3
F-1.99993896484375
sg4
F-1.24951171875
sg5
F-0.047805052831422085
sg6
F0.2862829899596049
ss(I19
I3
I01
I00
tp571
(dp572
g3
F0.6871322088775595
sg4
F0.7549235637906693
sg5
F3.647034483518317
sg6
I0
ss(I14
I9
I00
I01
tp573
(dp574
g3
I0
sg4
F-0.32007798409791854
sg5
F0.04828991228749535
sg6
F1.386446677833104
ss(I19
I8
I00
I00
tp575
(dp576
g3
F0.9012387631335934
sg4
F0.22033400021999594
sg5
F6.79388144311506
sg6
I0
ss(I18
I5
I00
I01
tp577
(dp578
g3
F-0.29318156725794586
sg4
F0.125
sg5
F1.0491166551705575
sg6
F0.8465001058091655
ss(I8
I5
I00
I00
tp579
(dp580
g3
F-0.1383636162275509
sg4
F3.313318732545606
sg5
F-0.6713721283713868
sg6
I0
ss(I13
I5
I01
I00
tp581
(dp582
g3
F0.016622116703888967
sg4
F1.880422662693007
sg5
F0.3939365670431774
sg6
I0
ss(I20
I10
I00
I00
tp583
(dp584
g3
F-1.9999999999997868
sg4
F-1.0
sg5
F4.274253070830937
sg6
I0
ss(I9
I9
I00
I00
tp585
(dp586
g3
F-0.6484378939490648
sg4
F0.6986677829030643
sg5
F-0.39227193597700966
sg6
I0
ss(I20
I4
I00
I00
tp587
(dp588
g3
F-1.9999847374856454
sg4
F-0.9999386319789605
sg5
F8.388511224760297
sg6
I0
ss(I16
I10
I01
I00
tp589
(dp590
g3
F-1.7066867082426316
sg4
F3.7677818724978476
sg5
F-0.5524948981219696
sg6
I0
ss(I20
I3
I01
I00
tp591
(dp592
g3
F2.3012525012810867
sg4
F4.060879981251575
sg5
F5.364767051620565
sg6
I0
ss(I7
I4
I00
I00
tp593
(dp594
g3
F-0.5551145793626245
sg4
F0.5906038483247457
sg5
F-0.05215127004056172
sg6
I0
ss(I10
I9
I00
I00
tp595
(dp596
g3
F-1.1188042587211426
sg4
F3.377130358896322
sg5
F0.08286422852005204
sg6
I0
ss(I15
I1
I01
I00
tp597
(dp598
g3
F-1.7839627641311853
sg4
F0.021776089208964216
sg5
F-0.3903058995297255
sg6
I0
ss(I17
I5
I00
I00
tp599
(dp600
g3
F0.09576120964552515
sg4
F-0.2038386881058749
sg5
F1.7609042508175081
sg6
I0
ss(I10
I7
I00
I00
tp601
(dp602
g3
F0.027477250772586115
sg4
F4.270745317556805
sg5
F0.17962619500937366
sg6
I0
ss(I8
I9
I00
I01
tp603
(dp604
g3
F0.04168187283383962
sg4
F0.5282691103786005
sg5
F-0.28983841558602425
sg6
F0.12191325754710902
ss(I14
I4
I00
I00
tp605
(dp606
g3
F-0.22611661878520128
sg4
F-0.874447538867644
sg5
F2.6861529871562277
sg6
I0
ss(I18
I2
I01
I00
tp607
(dp608
g3
F0.486777713345411
sg4
F1.2649764734076068
sg5
F2.5442940565039165
sg6
I0
ss(I20
I5
I00
I00
tp609
(dp610
g3
F-2.0000000596047585
sg4
F-0.3383911057698512
sg5
F6.362649260677805
sg6
I0
ss(I13
I9
I00
I00
tp611
(dp612
g3
F-1.7616684181118476
sg4
F1.3750248296002834
sg5
F-0.20197807444815863
sg6
I0
ss(I16
I5
I00
I01
tp613
(dp614
g3
F-0.5872892837837058
sg4
F0.13495604084804858
sg5
F0.24144902409416347
sg6
F2.5789355320882326
ss(I12
I7
I00
I00
tp615
(dp616
g3
F-0.5297184009094621
sg4
F-0.25102614632825093
sg5
F0.5191653810861122
sg6
I0
ss(I21
I10
I01
I00
tp617
(dp618
g3
I0
sg4
I0
sg5
F14.979737923398964
sg6
I0
ss(I8
I4
I00
I00
tp619
(dp620
g3
F-0.29033428583355814
sg4
F4.393103291389618
sg5
F0.03989903484218804
sg6
I0
ss(I20
I2
I01
I00
tp621
(dp622
g3
F-0.001241182821566822
sg4
F1.537757737236523
sg5
F8.042561709485279
sg6
I0
ss(I20
I9
I00
I00
tp623
(dp624
g3
F-1.9999883174876913
sg4
F-0.9374999850983841
sg5
F7.158022348903144
sg6
I0
ss(I4
I5
I00
I01
tp625
(dp626
g3
I0
sg4
F0.4601750548967132
sg5
F0.3805058231805057
sg6
F0.7927023484287825
ss(I6
I9
I00
I00
tp627
(dp628
g3
F-0.8730974080235778
sg4
F0.6193671149399108
sg5
F-0.34111835746263963
sg6
I0
ss(I10
I5
I00
I01
tp629
(dp630
g3
F0.03778567488360368
sg4
I0
sg5
F0.1333629885956208
sg6
F1.9281664779242835
ss(I9
I10
I00
I00
tp631
(dp632
g3
F-0.9557335267545746
sg4
F0.15924385006813757
sg5
F-0.05500891237304123
sg6
I0
ss(I8
I3
I00
I01
tp633
(dp634
g3
F0.022505982896419585
sg4
F0.9155722703610678
sg5
F-0.2309806933020273
sg6
F0.4992594897100054
ss(I12
I7
I00
I01
tp635
(dp636
g3
F-0.5028191391323108
sg4
F0.24259134426059126
sg5
F-0.3001070132724916
sg6
F1.270216021386625
ss(I14
I7
I00
I00
tp637
(dp638
g3
F-0.9327058890468303
sg4
F-0.9626958108213841
sg5
F-1.2051197268277904
sg6
I0
ss(I13
I6
I01
I00
tp639
(dp640
g3
F0.2761335534473972
sg4
F0.5860466206163581
sg5
F0.07175217005067935
sg6
I0
ss(I12
I10
I00
I01
tp641
(dp642
g3
F-1.2096492764206532
sg4
F-0.5368329579472914
sg5
F0.08889976221732837
sg6
F0.580670913011639
ss(I10
I8
I00
I00
tp643
(dp644
g3
F0.07364738357739109
sg4
F3.5876607181769296
sg5
F0.2327763540917594
sg6
I0
ss(I6
I6
I00
I01
tp645
(dp646
g3
F-0.047840422545830985
sg4
F0.4630419748616369
sg5
F0.14071406839111517
sg6
F1.0364592684398335
ss(I20
I7
I01
I00
tp647
(dp648
g3
F-0.11191454114053373
sg4
F1.096291039496624
sg5
F9.599673050988303
sg6
I0
ss(I12
I3
I00
I01
tp649
(dp650
g3
F-0.1057972916412735
sg4
F-0.27107759601957776
sg5
F0.21064138053965747
sg6
F3.107537229178512
ss(I17
I6
I00
I00
tp651
(dp652
g3
F-0.16767713316052468
sg4
F-0.7494443728106127
sg5
F-0.3790172037541417
sg6
I0
ss(I16
I9
I01
I00
tp653
(dp654
g3
F-1.1816295827350562
sg4
F2.0401528607577766
sg5
F-0.20111938131075108
sg6
I0
ss(I10
I7
I00
I01
tp655
(dp656
g3
F7.934437887140216
sg4
F1.2715202347542534
sg5
F0.908198637444152
sg6
F0.884744440358352
ss(I14
I4
I00
I01
tp657
(dp658
g3
F-1.75
sg4
F-0.625
sg5
F-0.19335288943246776
sg6
F1.194704544792703
ss(I21
I6
I01
I00
tp659
(dp660
g3
I0
sg4
I0
sg5
F15.386914785352658
sg6
I0
ss(I15
I6
I01
I00
tp661
(dp662
g3
F-0.06572470816629028
sg4
F1.8404354006232895
sg5
F0.07522170995444638
sg6
I0
ss(I14
I2
I00
I01
tp663
(dp664
g3
F-1.4583211874690418
sg4
F0.005371630753363443
sg5
F-0.5
sg6
F0.6842554139077786
ss(I18
I3
I00
I01
tp665
(dp666
g3
F-0.9375
sg4
F-0.7051529132817992
sg5
F1.4872222422888646
sg6
F0.47384741425935945
ss(I20
I7
I00
I01
tp667
(dp668
g3
F-4.96875
sg4
F-0.0002288818359375
sg5
F6.944047338398667
sg6
F1.055680138835082
ss(I19
I1
I01
I00
tp669
(dp670
g3
F-1.9059412425736584
sg4
F4.408988349384707
sg5
F-0.19821859148089113
sg6
I0
ss(I18
I10
I00
I00
tp671
(dp672
g3
F-0.5834401242582867
sg4
F-0.9227062302958645
sg5
F-0.08866213582884849
sg6
I0
ss(I19
I6
I00
I00
tp673
(dp674
g3
F0.0141686974046904
sg4
F-0.09700198388461045
sg5
F5.809386829959097
sg6
I0
ss(I18
I5
I01
I00
tp675
(dp676
g3
F1.2844822596671213
sg4
F0.7114050704887743
sg5
F2.308800960205068
sg6
I0
ss(I21
I2
I01
I00
tp677
(dp678
g3
I0
sg4
I0
sg5
F15.015211063237967
sg6
I0
ss(I8
I3
I00
I00
tp679
(dp680
g3
F-0.44775484713389146
sg4
F2.144311379306683
sg5
F0.0038648953389637253
sg6
I0
ss(I13
I7
I01
I00
tp681
(dp682
g3
F0.18948478283409964
sg4
F3.209228148721202
sg5
F0.25245852857205425
sg6
I0
ss(I20
I8
I00
I00
tp683
(dp684
g3
F-0.9999980924185312
sg4
F-0.9997477532015182
sg5
F6.025514310212571
sg6
I0
ss.